(dp0
S'alancolmes'
p1
I1
sS'dynamic'
p2
I2
sS'thehill'
p3
I3
sS'four'
p4
I4
sS'nicky'
p5
I3467
sS'protest'
p6
I5
sS'jihad'
p7
I6
sS'sleep'
p8
I7
sS'woody'
p9
I63
sS'oldest'
p10
I9
sS'hate'
p11
I10
sS'goldfinger'
p12
I11
sS'ethics'
p13
I2075
sS'whose'
p14
I12
sS'votes'
p15
I13
sS'kingsbarns'
p16
I14
sS'geraldo'
p17
I15
sS'electricity'
p18
I16
sS'scmaness'
p19
I17
sS'tweet'
p20
I18
sS'presents'
p21
I19
sS'voted'
p22
I20
sS'under'
p23
I21
sS'lord'
p24
I22
sS'sorry'
p25
I23
sS'pride'
p26
I24
sS'worth'
p27
I25
sS'plants'
p28
I3552
sS'risk'
p29
I27
sS'rise'
p30
I28
sS'every'
p31
I29
sS'jack'
p32
I30
sS'billmaher'
p33
I31
sS'bringing'
p34
I32
sS'encounter'
p35
I33
sS'tickets'
p36
I34
sS'barraged'
p37
I35
sS'school'
p38
I36
sS'cause'
p39
I3091
sS'conceive'
p40
I39
sS'venue'
p41
I40
sS'wednesday'
p42
I41
sS'announced'
p43
I3093
sS'baldasaro'
p44
I44
sS'heading'
p45
I45
sS'triumph'
p46
I46
sS'enjoy'
p47
I47
sS'achievements'
p48
I3094
sS'bernanke'
p49
I49
sS'bill'
p50
I2506
sS'force'
p51
I51
sS'leaders'
p52
I52
sS'tired'
p53
I53
sS'miller'
p54
I2352
sS'consistent'
p55
I55
sS'direct'
p56
I57
sS'budget'
p57
I2508
sS'surrounding'
p58
I59
sS'second'
p59
I60
sS'street'
p60
I61
sS'pattinson'
p61
I62
sS'crtr'
p62
I8
sS'pameladunfee'
p63
I65
sS'even'
p64
I66
sS'neo'
p65
I67
sS'captain'
p66
I68
sS'qaddafi'
p67
I69
sS'integrity'
p68
I70
sS'beaten'
p69
I71
sS'trumpchicago'
p70
I72
sS'liberty'
p71
I73
sS'children'
p72
I1864
sS'victims'
p73
I2597
sS'lights'
p74
I75
sS'chrisc'
p75
I76
sS'omarosa'
p76
I77
sS'jerome'
p77
I1865
sS'endorse'
p78
I79
sS'raleynicole'
p79
I80
sS'supplies'
p80
I947
sS'net'
p81
I82
sS'increasing'
p82
I83
sS'ever'
p83
I84
sS'ipod'
p84
I3097
sS'told'
p85
I85
sS'reporter'
p86
I86
sS'men'
p87
I87
sS'equals'
p88
I88
sS'here'
p89
I89
sS'lizzieliz'
p90
I90
sS'reported'
p91
I91
sS'china'
p92
I92
sS'represented'
p93
I93
sS'path'
p94
I94
sS'spies'
p95
I95
sS'celebration'
p96
I96
sS'dry'
p97
I97
sS'generals'
p98
I98
sS'daughter'
p99
I99
sS'forum'
p100
I100
sS'employees'
p101
I43
sS'changed'
p102
I102
sS'reports'
p103
I104
sS'sethmeyers'
p104
I105
sS'paris'
p105
I106
sS'military'
p106
I107
sS'weakens'
p107
I108
sS'punishment'
p108
I109
sS'york'
p109
I3101
sS'grandkids'
p110
I110
sS'golden'
p111
I111
sS'fantastic'
p112
I112
sS'secure'
p113
I113
sS'campaign'
p114
I114
sS'mileycyrus'
p115
I115
sS'highly'
p116
I116
sS'county'
p117
I117
sS'visible'
p118
I118
sS'specifics'
p119
I119
sS'amherst'
p120
I749
sS'stern'
p121
I121
sS'atrium'
p122
I122
sS'counts'
p123
I766
sS'total'
p124
I124
sS'landscape'
p125
I125
sS'rancho'
p126
I126
sS'cschlechta'
p127
I127
sS'would'
p128
I128
sS'army'
p129
I129
sS'nine'
p130
I2023
sS'pulling'
p131
I2962
sS'negative'
p132
I132
sS'elect'
p133
I2862
sS'call'
p134
I134
sS'therefore'
p135
I135
sS'recommend'
p136
I136
sS'strike'
p137
I137
sS'survive'
p138
I138
sS'type'
p139
I139
sS'until'
p140
I140
sS'snowden'
p141
I141
sS'supporters'
p142
I143
sS'holy'
p143
I144
sS'scary'
p144
I3106
sS'successful'
p145
I146
sS'expose'
p146
I147
sS'trumptowerny'
p147
I148
sS'award'
p148
I149
sS'hurt'
p149
I150
sS'glass'
p150
I151
sS'trumpties'
p151
I152
sS'hold'
p152
I154
sS'blindfold'
p153
I943
sS'tampa'
p154
I156
sS'must'
p155
I157
sS'me'
p156
I158
sS'disappointing'
p157
I2521
sS'morally'
p158
I855
sS'word'
p159
I961
sS'room'
p160
I162
sS'rights'
p161
I163
sS'work'
p162
I164
sS'roof'
p163
I165
sS'movies'
p164
I166
sS'henry'
p165
I1006
sS'antbaxter'
p166
I168
sS'my'
p167
I169
sS'example'
p168
I170
sS'piers'
p169
I171
sS'estate'
p170
I172
sS'give'
p171
I173
sS'household'
p172
I174
sS'laughs'
p173
I175
sS'involve'
p174
I176
sS'currency'
p175
I177
sS'reviewing'
p176
I178
sS'want'
p177
I179
sS'charities'
p178
I2099
sS'organizer'
p179
I181
sS'times'
p180
I3113
sS'guarantee'
p181
I183
sS'jwizzle'
p182
I184
sS'end'
p183
I185
sS'recovery'
p184
I186
sS'turn'
p185
I187
sS'provide'
p186
I188
sS'travel'
p187
I189
sS'egyptian'
p188
I1887
sS'nuts'
p189
I191
sS'damage'
p190
I192
sS'machine'
p191
I193
sS'how'
p192
I194
sS'stupidity'
p193
I195
sS'interview'
p194
I196
sS'beach'
p195
I198
sS'salmond'
p196
I199
sS'massive'
p197
I1275
sS'badly'
p198
I201
sS'elizabeth'
p199
I202
sS'mess'
p200
I203
sS'insecure'
p201
I204
sS'after'
p202
I205
sS'asenaphotograph'
p203
I206
sS'ball'
p204
I3425
sS'predicated'
p205
I207
sS'less'
p206
I3458
sS'thankyou'
p207
I208
sS'wrong'
p208
I209
sS'mph'
p209
I1890
sS'curiosity'
p210
I211
sS'president'
p211
I212
sS'law'
p212
I213
sS'leezagibbons'
p213
I214
sS'las'
p214
I215
sS'davidaxelrod'
p215
I216
sS'jefeclutch'
p216
I217
sS'third'
p217
I218
sS'fewer'
p218
I2828
sS'wins'
p219
I220
sS'cheri'
p220
I222
sS'headquarters'
p221
I223
sS'capitalism'
p222
I224
sS'maintain'
p223
I225
sS'green'
p224
I226
sS'midas'
p225
I227
sS'unreasoned'
p226
I228
sS'worst'
p227
I1892
sS'democratic'
p228
I230
sS'order'
p229
I231
sS'wind'
p230
I232
sS'senators'
p231
I233
sS'office'
p232
I234
sS'over'
p233
I235
sS'smokeybearhug'
p234
I238
sS'pascal'
p235
I239
sS'london'
p236
I240
sS'pgagrandslam'
p237
I241
sS'piersmorgan'
p238
I3130
sS'japan'
p239
I242
sS'nets'
p240
I243
sS'before'
p241
I244
sS'fit'
p242
I245
sS'personal'
p243
I246
sS'fix'
p244
I248
sS'recreational'
p245
I249
sS'imm'
p246
I250
sS'writing'
p247
I251
sS'better'
p248
I252
sS'weeks'
p249
I254
sS'maathewdavis'
p250
I255
sS'eugene'
p251
I256
sS'then'
p252
I257
sS'them'
p253
I258
sS'iowa'
p254
I259
sS'babies'
p255
I260
sS'weakness'
p256
I261
sS'unemployed'
p257
I262
sS'safe'
p258
I263
sS'alweaver'
p259
I264
sS'they'
p260
I265
sS'one'
p261
I267
sS'eisenhower'
p262
I268
sS'bank'
p263
I269
sS'rhetoric'
p264
I270
sS'alex'
p265
I271
sS'rocky'
p266
I272
sS'clumsy'
p267
I1287
sS'potatoes'
p268
I275
sS'debut'
p269
I276
sS'chuck'
p270
I277
sS'explode'
p271
I278
sS'baylor'
p272
I279
sS'good'
p273
I2131
sS'victory'
p274
I280
sS'roast'
p275
I281
sS'each'
p276
I282
sS'went'
p277
I283
sS'side'
p278
I285
sS'luck'
p279
I286
sS'signing'
p280
I287
sS'vincemcmahon'
p281
I296
sS'evolve'
p282
I289
sS'companies'
p283
I290
sS'crimes'
p284
I291
sS'solution'
p285
I294
sS'celebrating'
p286
I1782
sS'hosted'
p287
I297
sS'logo'
p288
I298
sS'truman'
p289
I299
sS'saturday'
p290
I300
sS'buildup'
p291
I2899
sS'rt'
p292
I301
sS'by'
p293
I2663
sS'trending'
p294
I303
sS'network'
p295
I304
sS'god'
p296
I305
sS'tried'
p297
I2067
sS'pensacola'
p298
I306
sS'forty'
p299
I307
sS'ricksantorum'
p300
I308
sS'george'
p301
I309
sS'rd'
p302
I310
sS're'
p303
I311
sS'encourage'
p304
I312
sS'got'
p305
I313
sS'newly'
p306
I314
sS'gov'
p307
I315
sS'gop'
p308
I316
sS'independence'
p309
I317
sS'foundation'
p310
I318
sS'hillaryclinton'
p311
I319
sS'arizona'
p312
I320
sS'turning'
p313
I321
sS'resume'
p314
I322
sS'michaelscarbrou'
p315
I323
sS'given'
p316
I324
sS'free'
p317
I325
sS'negotiate'
p318
I2543
sS'crowned'
p319
I1575
sS'wanted'
p320
I328
sS'storm'
p321
I2253
sS'renee'
p322
I329
sS'liljon'
p323
I330
sS'ok'
p324
I2934
sS'created'
p325
I331
sS'starts'
p326
I333
sS'days'
p327
I334
sS'creates'
p328
I336
sS'isn'
p329
I337
sS'signature'
p330
I338
sS'moving'
p331
I339
sS'eldycorrea'
p332
I340
sS'stewart'
p333
I341
sS'truthfulness'
p334
I343
sS'already'
p335
I344
sS'features'
p336
I345
sS'primary'
p337
I348
sS'trusting'
p338
I3167
sS'hearing'
p339
I349
sS'groundbreaking'
p340
I350
sS'another'
p341
I351
sS'wasn'
p342
I352
sS'hood'
p343
I353
sS'anyone'
p344
I1154
sS'windmills'
p345
I355
sS'rated'
p346
I356
sS'gaphotoman'
p347
I1913
sS'service'
p348
I358
sS'brandiglanville'
p349
I359
sS'top'
p350
I360
sS'twisted'
p351
I2227
sS'fiction'
p352
I362
sS'needed'
p353
I363
sS'merica'
p354
I364
sS'master'
p355
I365
sS'too'
p356
I366
sS'tom'
p357
I367
sS'dwell'
p358
I368
sS'hollywood'
p359
I369
sS'john'
p360
I370
sS'massively'
p361
I371
sS'listen'
p362
I372
sS'ceiling'
p363
I373
sS'rest'
p364
I3465
sS'tool'
p365
I374
sS'albert'
p366
I375
sS'took'
p367
I376
sS'negotiating'
p368
I377
sS'foxnews'
p369
I1917
sS'mubarek'
p370
I379
sS'wasted'
p371
I380
sS'jodil'
p372
I2085
sS'horrible'
p373
I3307
sS'positively'
p374
I382
sS'donaldtrump'
p375
I383
sS'messing'
p376
I3139
sS'target'
p377
I386
sS'immigrants'
p378
I387
sS'rate'
p379
I1919
sS'shower'
p380
I389
sS'matter'
p381
I390
sS'williams'
p382
I391
sS'iron'
p383
I392
sS'bringbackourmarine'
p384
I393
sS'stacey'
p385
I395
sS'bridge'
p386
I396
sS'rae'
p387
I397
sS'boston'
p388
I399
sS'mind'
p389
I400
sS'mine'
p390
I401
sS'spent'
p391
I2556
sS'talking'
p392
I405
sS'superstorm'
p393
I406
sS'politcswatch'
p394
I869
sS'seen'
p395
I408
sS'seem'
p396
I409
sS'trumprink'
p397
I410
sS'seek'
p398
I411
sS'tells'
p399
I412
sS'forced'
p400
I413
sS'strength'
p401
I414
sS'laden'
p402
I415
sS'snow'
p403
I416
sS'oriented'
p404
I417
sS'causing'
p405
I418
sS'derek'
p406
I419
sS'luxury'
p407
I420
sS'doors'
p408
I421
sS'laughed'
p409
I422
sS'jrnicholas'
p410
I423
sS'perduesenate'
p411
I424
sS'blue'
p412
I425
sS'though'
p413
I427
sS'thrilled'
p414
I428
sS'kyleraccio'
p415
I429
sS'hammond'
p416
I430
sS'what'
p417
I1929
sS'kelly'
p418
I2561
sS'regular'
p419
I433
sS'germany'
p420
I434
sS'underemployment'
p421
I435
sS'stood'
p422
I1931
sS'alabama'
p423
I437
sS'unknowingly'
p424
I438
sS'dummy'
p425
I440
sS'singer'
p426
I441
sS'don'
p427
I442
sS'brentbozell'
p428
I1933
sS'freedomhaawk'
p429
I444
sS'lose'
p430
I3506
sS'm'
p431
I445
sS'dog'
p432
I446
sS'musical'
p433
I447
sS'points'
p434
I448
sS'camo'
p435
I449
sS'dailycaller'
p436
I1936
sS'baileyandy'
p437
I451
sS'entertaining'
p438
I452
sS'voting'
p439
I453
sS'consumer'
p440
I454
sS'came'
p441
I455
sS'kristen'
p442
I456
sS'renting'
p443
I457
sS'saying'
p444
I458
sS'breitbartnews'
p445
I459
sS'retire'
p446
I460
sS'sage'
p447
I461
sS'ending'
p448
I462
sS'bethpage'
p449
I463
sS'radio'
p450
I464
sS'supplied'
p451
I465
sS'dopey'
p452
I466
sS'conclusion'
p453
I3652
sS'nevada'
p454
I467
sS'dopes'
p455
I468
sS'bain'
p456
I469
sS'lessons'
p457
I470
sS'orleans'
p458
I471
sS'headline'
p459
I472
sS'explain'
p460
I473
sS'bust'
p461
I474
sS'sugar'
p462
I475
sS'bush'
p463
I476
sS'masterbaxter'
p464
I477
sS'disgust'
p465
I478
sS'foolishly'
p466
I479
sS'announce'
p467
I480
sS'rice'
p468
I481
sS'jailed'
p469
I482
sS'hrc'
p470
I483
sS'do'
p471
I485
sS'asians'
p472
I486
sS'wide'
p473
I1332
sS'lilrachiepoo'
p474
I2696
sS'stop'
p475
I815
sS'dc'
p476
I489
sS'preferred'
p477
I490
sS'coast'
p478
I491
sS'criticized'
p479
I492
sS'pleaserun'
p480
I493
sS'spirit'
p481
I1872
sS'new'
p482
I81
sS'report'
p483
I495
sS'nasty'
p484
I496
sS'dr'
p485
I497
sS'runs'
p486
I501
sS'bar'
p487
I502
sS'autistic'
p488
I503
sS'covering'
p489
I504
sS'solders'
p490
I505
sS'guns'
p491
I1943
sS'twice'
p492
I507
sS'bad'
p493
I508
sS'release'
p494
I509
sS'identify'
p495
I510
sS'steal'
p496
I511
sS'farther'
p497
I512
sS'respond'
p498
I513
sS'lettering'
p499
I514
sS'blew'
p500
I515
sS'hagan'
p501
I516
sS'disaster'
p502
I517
sS'swept'
p503
I930
sS'branding'
p504
I519
sS'goodnight'
p505
I522
sS'decided'
p506
I523
sS'result'
p507
I524
sS'trumpdoral'
p508
I525
sS'horrendous'
p509
I526
sS'corrupt'
p510
I527
sS'iran'
p511
I1948
sS'resigned'
p512
I529
sS'best'
p513
I530
sS'subject'
p514
I531
sS'pete'
p515
I532
sS'said'
p516
I534
sS'capacity'
p517
I535
sS'lots'
p518
I536
sS'away'
p519
I537
sS'irs'
p520
I538
sS'plummeting'
p521
I539
sS'biggovt'
p522
I540
sS'trumpferrypoint'
p523
I541
sS'stamps'
p524
I542
sS'future'
p525
I1336
sS'olympics'
p526
I544
sS'finger'
p527
I545
sS'hopefully'
p528
I546
sS'profitable'
p529
I2575
sS'we'
p530
I548
sS'never'
p531
I549
sS'terms'
p532
I550
sS'peggynoonannyc'
p533
I2576
sS'component'
p534
I1949
sS'weak'
p535
I554
sS'bowsbybaby'
p536
I555
sS'wh'
p537
I556
sS'drew'
p538
I558
sS'dedication'
p539
I559
sS'news'
p540
I560
sS'motto'
p541
I561
sS'debt'
p542
I562
sS'improve'
p543
I563
sS'retrospect'
p544
I3639
sS'received'
p545
I564
sS'protect'
p546
I565
sS'brown'
p547
I2034
sS'davenanni'
p548
I566
sS'country'
p549
I567
sS'ill'
p550
I568
sS'penalizing'
p551
I569
sS'against'
p552
I570
sS'games'
p553
I571
sS'planned'
p554
I572
sS'com'
p555
I573
sS'col'
p556
I574
sS'households'
p557
I354
sS'negotiation'
p558
I575
sS'tough'
p559
I576
sS'had'
p560
I577
sS'dorm'
p561
I578
sS'tons'
p562
I579
sS'shortcut'
p563
I2584
sS'tony'
p564
I582
sS'laughingstock'
p565
I3166
sS'beheaded'
p566
I584
sS'trust'
p567
I585
sS'deesnider'
p568
I586
sS'speak'
p569
I3539
sS'conference'
p570
I588
sS'iraq'
p571
I1958
sS'jobless'
p572
I590
sS'ginhay'
p573
I591
sS'source'
p574
I2586
sS'union'
p575
I592
sS'three'
p576
I593
sS'been'
p577
I594
sS'quickly'
p578
I595
sS'subsidy'
p579
I596
sS'much'
p580
I597
sS'interest'
p581
I598
sS'expected'
p582
I599
sS'flexible'
p583
I600
sS'entered'
p584
I601
sS'incompetent'
p585
I602
sS'deportations'
p586
I603
sS'sacha'
p587
I604
sS'website'
p588
I605
sS'life'
p589
I606
sS'families'
p590
I607
sS'loft'
p591
I608
sS'drugs'
p592
I609
sS'republicans'
p593
I610
sS'worker'
p594
I611
sS'wish'
p595
I3276
sS'dave'
p596
I612
sS'kids'
p597
I613
sS'personally'
p598
I614
sS'haters'
p599
I615
sS'east'
p600
I616
sS'tank'
p601
I617
sS'presidency'
p602
I619
sS'air'
p603
I621
sS'employ'
p604
I622
sS'dept'
p605
I623
sS'near'
p606
I624
sS'teachers'
p607
I625
sS'aid'
p608
I626
sS'property'
p609
I627
sS'realbencarson'
p610
I628
sS'anchor'
p611
I629
sS'launched'
p612
I630
sS'mistake'
p613
I631
sS'seven'
p614
I632
sS'cons'
p615
I633
sS'cont'
p616
I634
sS'rasmussenpoll'
p617
I635
sS'mexico'
p618
I637
sS'allows'
p619
I3220
sS'is'
p620
I639
sS'it'
p621
I642
sS'player'
p622
I645
sS'marco'
p623
I2596
sS'im'
p624
I646
sS'in'
p625
I647
sS'rosenavy'
p626
I3174
sS'campaigning'
p627
I180
sS'id'
p628
I649
sS'disappear'
p629
I650
sS'if'
p630
I651
sS'grown'
p631
I652
sS'containing'
p632
I653
sS'jeffh'
p633
I654
sS'taped'
p634
I655
sS'perform'
p635
I656
sS'things'
p636
I657
sS'make'
p637
I658
sS'bradangsa'
p638
I659
sS'who'
p639
I3194
sS'bennis'
p640
I661
sS'jonhuntsman'
p641
I662
sS'damages'
p642
I663
sS'unfortunate'
p643
I664
sS'incorrectly'
p644
I665
sS'cisrabbit'
p645
I3137
sS'grows'
p646
I667
sS'fairly'
p647
I668
sS'catholic'
p648
I3180
sS'pick'
p649
I1972
sS'tops'
p650
I671
sS'workforce'
p651
I672
sS'evil'
p652
I673
sS'hand'
p653
I674
sS'todayshow'
p654
I675
sS'kim'
p655
I676
sS'bunker'
p656
I677
sS'jealous'
p657
I678
sS'geist'
p658
I679
sS'opportunity'
p659
I680
sS'blamed'
p660
I681
sS'thoughts'
p661
I682
sS'blairmiller'
p662
I3089
sS'kept'
p663
I684
sS'programs'
p664
I685
sS'failing'
p665
I686
sS'inherit'
p666
I687
sS'ocean'
p667
I688
sS'episode'
p668
I2715
sS'greatest'
p669
I689
sS'dmregister'
p670
I690
sS'claims'
p671
I691
sS'the'
p672
I692
sS'underestimated'
p673
I693
sS'yours'
p674
I694
sS'left'
p675
I695
sS'raffaele'
p676
I696
sS'alphatreblesix'
p677
I697
sS'letterman'
p678
I698
sS'just'
p679
I699
sS'unemployment'
p680
I700
sS'yea'
p681
I701
sS'photo'
p682
I702
sS'warmest'
p683
I384
sS'unfair'
p684
I704
sS'likabrdthatflew'
p685
I1368
sS'quotes'
p686
I706
sS'birmingham'
p687
I707
sS'thanks'
p688
I708
sS'human'
p689
I709
sS'facts'
p690
I710
sS'yes'
p691
I711
sS'freespeech'
p692
I3253
sS'yet'
p693
I712
sS'pinehurst'
p694
I713
sS'adding'
p695
I714
sS'buyers'
p696
I715
sS'burns'
p697
I716
sS'candidate'
p698
I717
sS'character'
p699
I718
sS'ideal'
p700
I1370
sS'wright'
p701
I720
sS'soyerjanis'
p702
I721
sS'board'
p703
I722
sS'justices'
p704
I56
sS'has'
p705
I724
sS'gave'
p706
I725
sS'freedom'
p707
I3562
sS'rnc'
p708
I726
sS'reagan'
p709
I727
sS'credit'
p710
I728
sS'possible'
p711
I729
sS'arab'
p712
I730
sS'possibly'
p713
I731
sS'birth'
p714
I732
sS'wanting'
p715
I1376
sS'govt'
p716
I734
sS'unique'
p717
I735
sS'bushy'
p718
I736
sS'vanity'
p719
I737
sS'desire'
p720
I738
sS'dignity'
p721
I739
sS'appearing'
p722
I740
sS'gift'
p723
I741
sS'bobby'
p724
I742
sS'dishonest'
p725
I743
sS'unnecessary'
p726
I744
sS'champ'
p727
I3583
sS'overrated'
p728
I745
sS'night'
p729
I746
sS'icebucketchallenge'
p730
I747
sS'security'
p731
I748
sS'chowes'
p732
I750
sS'right'
p733
I751
sS'honored'
p734
I819
sS'gawker'
p735
I753
sS'deal'
p736
I754
sS'people'
p737
I755
sS'easy'
p738
I723
sS'robocall'
p739
I756
sS'wwe'
p740
I758
sS'born'
p741
I759
sS'donald'
p742
I760
sS'seanhannity'
p743
I761
sS'election'
p744
I762
sS'escape'
p745
I763
sS'critique'
p746
I764
sS'unless'
p747
I3191
sS'enemies'
p748
I767
sS'friend'
p749
I1313
sS'callmemaybe'
p750
I769
sS'for'
p751
I770
sS'achievers'
p752
I2611
sS'phenomenal'
p753
I772
sS'fox'
p754
I773
sS'comments'
p755
I932
sS'sternshow'
p756
I775
sS'everything'
p757
I776
sS'asking'
p758
I946
sS'cnn'
p759
I778
sS'christmas'
p760
I779
sS'participation'
p761
I780
sS'alarmists'
p762
I781
sS'columbus'
p763
I782
sS'hastens'
p764
I992
sS'dennisrodman'
p765
I994
sS'bold'
p766
I785
sS'rep'
p767
I3676
sS'nancy'
p768
I3006
sS'huffingtonpost'
p769
I788
sS'cheating'
p770
I789
sS'losing'
p771
I790
sS'post'
p772
I791
sS'manufacturing'
p773
I792
sS'super'
p774
I793
sS'properties'
p775
I794
sS'endorsing'
p776
I795
sS'dnc'
p777
I796
sS'parenting'
p778
I3197
sS'attacks'
p779
I798
sS'dollars'
p780
I799
sS'citizens'
p781
I1082
sS'o'
p782
I801
sS'magazine'
p783
I802
sS'misleading'
p784
I803
sS'afternoon'
p785
I804
sS'done'
p786
I2231
sS'efforts'
p787
I805
sS'objectives'
p788
I1990
sS'liar'
p789
I1848
sS'match'
p790
I3481
sS'raised'
p791
I807
sS'destination'
p792
I2612
sS'statements'
p793
I809
sS'formerly'
p794
I810
sS'facility'
p795
I811
sS'tinkerbell'
p796
I1180
sS'prisoners'
p797
I813
sS'bath'
p798
I814
sS'down'
p799
I1209
sS'entrepreneur'
p800
I816
sS'ppp'
p801
I817
sS'raises'
p802
I818
sS'old'
p803
I752
sS'giv'
p804
I822
sS'chucktodd'
p805
I823
sS'america'
p806
I1394
sS'crowd'
p807
I825
sS'amazingly'
p808
I826
sS'support'
p809
I827
sS'flying'
p810
I1282
sS'legislation'
p811
I829
sS'vision'
p812
I1469
sS'mdhmdhmdh'
p813
I830
sS'fight'
p814
I831
sS'absolutely'
p815
I2622
sS'accordingly'
p816
I833
sS'victorious'
p817
I834
sS'editor'
p818
I835
sS'way'
p819
I836
sS'greatness'
p820
I837
sS'music'
p821
I838
sS'was'
p822
I839
sS'war'
p823
I840
sS'happy'
p824
I841
sS'lowest'
p825
I842
sS'head'
p826
I843
sS'medium'
p827
I844
sS'offer'
p828
I845
sS'batman'
p829
I846
sS'becoming'
p830
I847
sS'vitality'
p831
I848
sS'ford'
p832
I849
sS'failure'
p833
I850
sS'heat'
p834
I851
sS'hear'
p835
I852
sS'melania'
p836
I853
sS'indiana'
p837
I854
sS'hoosier'
p838
I1419
sS'amspec'
p839
I856
sS'true'
p840
I857
sS'univision'
p841
I2429
sS'congratulations'
p842
I860
sS'isis'
p843
I861
sS'emboldened'
p844
I1459
sS'harmony'
p845
I863
sS'inside'
p846
I864
sS'tell'
p847
I866
sS'knowing'
p848
I3282
sS'trumpforpresident'
p849
I868
sS'economic'
p850
I2627
sS'propaganda'
p851
I870
sS'feet'
p852
I2228
sS'promises'
p853
I871
sS'proud'
p854
I1401
sS'liberal'
p855
I873
sS'moore'
p856
I874
sS'request'
p857
I875
sS'shineb'
p858
I1544
sS'proven'
p859
I877
sS'mogainc'
p860
I878
sS'somebody'
p861
I2132
sS'proves'
p862
I879
sS'promised'
p863
I880
sS'michaelcohen'
p864
I881
sS'prayer'
p865
I882
sS'mediocre'
p866
I883
sS'check'
p867
I884
sS'k'
p868
I101
sS'regime'
p869
I886
sS'nh'
p870
I887
sS'palestinian'
p871
I888
sS'bedard'
p872
I889
sS'debrachopaola'
p873
I890
sS'weakened'
p874
I1615
sS'no'
p875
I892
sS'agreeing'
p876
I893
sS'na'
p877
I894
sS'nc'
p878
I895
sS'when'
p879
I896
sS'topped'
p880
I897
sS'reality'
p881
I898
sS'negotiators'
p882
I899
sS'flood'
p883
I900
sS'role'
p884
I901
sS'test'
p885
I903
sS'mrgrumpystephen'
p886
I904
sS'roll'
p887
I905
sS'realize'
p888
I3475
sS'subsidize'
p889
I906
sS'phoenix'
p890
I907
sS'meghan'
p891
I908
sS'surprise'
p892
I1894
sS'football'
p893
I910
sS'nixz'
p894
I911
sS'pummel'
p895
I3131
sS'journey'
p896
I912
sS'cleaver'
p897
I913
sS'musedsuccess'
p898
I914
sS'weekend'
p899
I915
sS'died'
p900
I916
sS'billion'
p901
I917
sS'faster'
p902
I919
sS'assume'
p903
I920
sS'together'
p904
I921
sS'barrel'
p905
I2767
sS'buzzfeedandrew'
p906
I922
sS'time'
p907
I923
sS'push'
p908
I924
sS'overturned'
p909
I925
sS'hope'
p910
I3249
sS'braley'
p911
I926
sS'global'
p912
I927
sS'dwyane'
p913
I928
sS'focus'
p914
I929
sS'manager'
p915
I931
sS'ice'
p916
I774
sS'battle'
p917
I933
sS'peachespulliam'
p918
I935
sS'devoted'
p919
I936
sS'pctech'
p920
I937
sS'certainly'
p921
I938
sS'anticipation'
p922
I939
sS'system'
p923
I3134
sS'zone'
p924
I940
sS'april'
p925
I3335
sS'obamacare'
p926
I941
sS'disgusting'
p927
I942
sS'cheat'
p928
I1415
sS'finally'
p929
I945
sS'sotu'
p930
I1713
sS'ivankatrump'
p931
I948
sS'terror'
p932
I949
sS'suffered'
p933
I950
sS'veterans'
p934
I951
sS'agreed'
p935
I3222
sS'division'
p936
I952
sS'careytim'
p937
I953
sS'advantage'
p938
I954
sS'billionaire'
p939
I955
sS'peale'
p940
I2014
sS'choice'
p941
I957
sS'wharton'
p942
I958
sS'vegas'
p943
I959
sS'servicing'
p944
I960
sS'join'
p945
I161
sS'exact'
p946
I962
sS'cool'
p947
I963
sS'level'
p948
I966
sS'did'
p949
I967
sS'turns'
p950
I968
sS'fktrey'
p951
I2018
sS'proposals'
p952
I969
sS'democrat'
p953
I970
sS'standards'
p954
I972
sS'leave'
p955
I973
sS'solved'
p956
I644
sS'domestically'
p957
I975
sS'settle'
p958
I976
sS'excellence'
p959
I977
sS'tump'
p960
I978
sS'team'
p961
I979
sS'quick'
p962
I980
sS'guy'
p963
I981
sS'round'
p964
I982
sS'bahia'
p965
I2218
sS'playbook'
p966
I3227
sS'cherylgravino'
p967
I985
sS'talked'
p968
I986
sS'says'
p969
I987
sS'tougher'
p970
I988
sS'sign'
p971
I989
sS'pme'
p972
I990
sS'heavyweight'
p973
I991
sS'cost'
p974
I2160
sS'shirts'
p975
I993
sS'pls'
p976
I784
sS'carrieon'
p977
I995
sS'afghanistan'
p978
I996
sS'elton'
p979
I997
sS'appear'
p980
I998
sS'moments'
p981
I3459
sS'debate'
p982
I3231
sS'stephenbaldwin'
p983
I1000
sS'goes'
p984
I1001
sS'shared'
p985
I1002
sS'falling'
p986
I1003
sS'allysonwardbrkr'
p987
I1004
sS'supporting'
p988
I1005
sS'mr'
p989
I167
sS'water'
p990
I1007
sS'witch'
p991
I1008
sS'redskins'
p992
I1009
sS'crippled'
p993
I1010
sS'jsheehangolf'
p994
I1011
sS'teaches'
p995
I1012
sS'teacher'
p996
I1013
sS'change'
p997
I1014
sS'wait'
p998
I1015
sS'box'
p999
I1016
sS'boy'
p1000
I1017
sS'culpo'
p1001
I1018
sS'ericbolling'
p1002
I1019
sS'brilliant'
p1003
I1020
sS'jay'
p1004
I3237
sS'liberals'
p1005
I3360
sS'trial'
p1006
I1023
sS'accomplished'
p1007
I1024
sS'exams'
p1008
I1025
sS'usually'
p1009
I1026
sS'doris'
p1010
I1027
sS'churchill'
p1011
I1029
sS'love'
p1012
I1030
sS'morals'
p1013
I1031
sS'sexter'
p1014
I1032
sS'edincamera'
p1015
I1034
sS'qualified'
p1016
I3450
sS'patriots'
p1017
I1035
sS'penalized'
p1018
I1036
sS'fbi'
p1019
I1037
sS'crisis'
p1020
I1039
sS'market'
p1021
I1040
sS'hotels'
p1022
I1041
sS'everybody'
p1023
I1042
sS'wealth'
p1024
I1044
sS'working'
p1025
I1045
sS'perk'
p1026
I1046
sS'positive'
p1027
I1047
sS'sweetiee'
p1028
I266
sS'visit'
p1029
I1049
sS'france'
p1030
I1978
sS'parties'
p1031
I3066
sS'live'
p1032
I1052
sS'nathanerbland'
p1033
I1053
sS'prez'
p1034
I1054
sS'cocaine'
p1035
I768
sS'tape'
p1036
I3242
sS'johnstown'
p1037
I2665
sS'pres'
p1038
I1057
sS'loving'
p1039
I1058
sS'wsoc'
p1040
I1059
sS'continue'
p1041
I2613
sS'afford'
p1042
I1060
sS'oregon'
p1043
I1061
sS'clue'
p1044
I1062
sS'sioux'
p1045
I1964
sS'tolerate'
p1046
I2507
sS'effort'
p1047
I1063
sS'capturing'
p1048
I1064
sS'walled'
p1049
I1065
sS'pageant'
p1050
I1066
sS'markham'
p1051
I1067
sS'anything'
p1052
I2670
sS'therealdeal'
p1053
I1070
sS'car'
p1054
I1071
sS'reelected'
p1055
I1072
sS'believes'
p1056
I1073
sS'hardest'
p1057
I1074
sS'can'
p1058
I1075
sS'entrepreneurs'
p1059
I2672
sS'growing'
p1060
I1077
sS'making'
p1061
I1078
sS'indignant'
p1062
I3250
sS'unfairly'
p1063
I3291
sS'admired'
p1064
I1563
sS'months'
p1065
I800
sS'trump'
p1066
I1083
sS'figure'
p1067
I1084
sS'expanding'
p1068
I1085
sS'awesome'
p1069
I1086
sS'winston'
p1070
I1087
sS'sake'
p1071
I2674
sS'topic'
p1072
I1088
sS'heard'
p1073
I1089
sS'<pad>'
p1074
I1090
sS'bezos'
p1075
I1091
sS'dropped'
p1076
I1092
sS'bossytxmar'
p1077
I1093
sS'allowed'
p1078
I1094
sS'offense'
p1079
I2964
sS'dennis'
p1080
I284
sS'stole'
p1081
I1098
sS'saugat'
p1082
I1099
sS'tltiger'
p1083
I1100
sS'productive'
p1084
I1101
sS'monitoring'
p1085
I1102
sS'bankrupt'
p1086
I1103
sS'lombardi'
p1087
I3330
sS'exceptional'
p1088
I1765
sS'nyt'
p1089
I1108
sS'chemical'
p1090
I1109
sS'beat'
p1091
I3255
sS'rubio'
p1092
I1111
sS'scotsmandotcom'
p1093
I1112
sS'fourth'
p1094
I1113
sS'endorsement'
p1095
I1114
sS'nyc'
p1096
I1115
sS'speaks'
p1097
I1116
sS'economy'
p1098
I1118
sS'criminal'
p1099
I3385
sS'staying'
p1100
I1119
sS'may'
p1101
I1122
sS'begging'
p1102
I1449
sS'snl'
p1103
I1124
sS'fed'
p1104
I2905
sS'southern'
p1105
I1125
sS'kylekisskiss'
p1106
I1126
sS'spot'
p1107
I3096
sS'islamic'
p1108
I1127
sS'mac'
p1109
I1128
sS'osborne'
p1110
I1129
sS'date'
p1111
I1130
sS'such'
p1112
I1131
sS'heroes'
p1113
I1132
sS'guys'
p1114
I1133
sS'renovation'
p1115
I1134
sS'man'
p1116
I1135
sS'remember'
p1117
I1136
sS'johnson'
p1118
I2256
sS'stupidly'
p1119
I1138
sS'maybe'
p1120
I1139
sS'sq'
p1121
I1140
sS'borrowing'
p1122
I1141
sS'dwight'
p1123
I2677
sS'q'
p1124
I1143
sS'opinionated'
p1125
I2577
sS'accelerated'
p1126
I1145
sS'sh'
p1127
I1146
sS'so'
p1128
I1147
sS'african'
p1129
I1148
sS'hassan'
p1130
I103
sS'increase'
p1131
I1151
sS'bellanycmag'
p1132
I1152
sS'talk'
p1133
I1153
sS'embassies'
p1134
I1155
sS'latenightjimmy'
p1135
I1156
sS'comfort'
p1136
I2055
sS'words'
p1137
I3262
sS'seeing'
p1138
I2679
sS'undervalued'
p1139
I1159
sS'wishing'
p1140
I1160
sS'years'
p1141
I1161
sS'stability'
p1142
I1162
sS'course'
p1143
I1163
sS'episodes'
p1144
I1164
sS'canard'
p1145
I1165
sS'cuts'
p1146
I1166
sS'dilemma'
p1147
I1167
sS'cold'
p1148
I1168
sS'still'
p1149
I1169
sS'birds'
p1150
I1170
sS'blocked'
p1151
I1171
sS'setbacks'
p1152
I1172
sS'pesident'
p1153
I1173
sS'group'
p1154
I1174
sS'thank'
p1155
I1175
sS'internationally'
p1156
I1176
sS'interesting'
p1157
I1177
sS'amazing'
p1158
I1178
sS'lyin'
p1159
I1179
sS'wasting'
p1160
I812
sS'offers'
p1161
I1181
sS'srqrepublicans'
p1162
I1457
sS'policy'
p1163
I1183
sS'mail'
p1164
I1184
sS'msnbc'
p1165
I1185
sS'main'
p1166
I1186
sS'happened'
p1167
I1187
sS'non'
p1168
I1189
sS'silentmajority'
p1169
I1190
sS'finance'
p1170
I1191
sS'views'
p1171
I1192
sS'devastated'
p1172
I1193
sS'killer'
p1173
I1194
sS'nation'
p1174
I1195
sS'records'
p1175
I1196
sS'touching'
p1176
I1197
sS'taliban'
p1177
I1198
sS'makeamericagreatagain'
p1178
I1199
sS'half'
p1179
I1200
sS'not'
p1180
I1201
sS'nov'
p1181
I1203
sS'now'
p1182
I1204
sS'twilight'
p1183
I1205
sS'killed'
p1184
I1206
sS'maintaining'
p1185
I1207
sS'wont'
p1186
I1208
sS'term'
p1187
I1210
sS'name'
p1188
I1211
sS'lies'
p1189
I1212
sS'reince'
p1190
I1213
sS'january'
p1191
I1214
sS'didn'
p1192
I1216
sS'possibilities'
p1193
I1217
sS'kingbronko'
p1194
I1218
sS'rock'
p1195
I1219
sS'amnesty'
p1196
I1220
sS'quarter'
p1197
I1221
sS'aspergers'
p1198
I1222
sS'el'
p1199
I1224
sS'square'
p1200
I2309
sS'significantly'
p1201
I1226
sS'qvc'
p1202
I2788
sS'yeah'
p1203
I1227
sS'challenges'
p1204
I1228
sS'catching'
p1205
I1229
sS'entering'
p1206
I1230
sS'year'
p1207
I1231
sS'et'
p1208
I1232
sS'happen'
p1209
I1233
sS'teams'
p1210
I3271
sS'disasters'
p1211
I1235
sS'description'
p1212
I1458
sS'canada'
p1213
I1237
sS'living'
p1214
I1238
sS'shown'
p1215
I1239
sS'rude'
p1216
I2068
sS'space'
p1217
I1241
sS'profit'
p1218
I1242
sS'oklahoma'
p1219
I1244
sS'ellenespence'
p1220
I1245
sS'looking'
p1221
I1246
sS'seriously'
p1222
I1247
sS'mclaughlln'
p1223
I3476
sS'phoenixconvctr'
p1224
I1248
sS'losers'
p1225
I1464
sS'dominate'
p1226
I37
sS'correct'
p1227
I1251
sS'shows'
p1228
I1252
sS'paynetb'
p1229
I3608
sS'monster'
p1230
I1254
sS'million'
p1231
I1255
sS'quite'
p1232
I1256
sS'bbcworld'
p1233
I1257
sS'sammartinobruno'
p1234
I1258
sS'california'
p1235
I1259
sS'besides'
p1236
I1260
sS'ohio'
p1237
I3277
sS'gaffe'
p1238
I1261
sS'obligation'
p1239
I1262
sS'questioning'
p1240
I2071
sS'gotv'
p1241
I1264
sS'card'
p1242
I1265
sS'care'
p1243
I1266
sS'partner'
p1244
I3408
sS'training'
p1245
I1267
sS'couldn'
p1246
I1268
sS'idiocy'
p1247
I2072
sS'dloesch'
p1248
I1270
sS'collapsing'
p1249
I1271
sS'safirepublicity'
p1250
I1272
sS'replacement'
p1251
I3511
sS'thing'
p1252
I1273
sS'place'
p1253
I1274
sS'aboard'
p1254
I200
sS'charleston'
p1255
I1276
sS'think'
p1256
I1277
sS'frequent'
p1257
I1278
sS'first'
p1258
I1279
sS'blind'
p1259
I1280
sS'trumpvine'
p1260
I1281
sS'tennis'
p1261
I828
sS'deanpreston'
p1262
I1283
sS'striking'
p1263
I1284
sS'downturn'
p1264
I3263
sS'yourself'
p1265
I1285
sS'opec'
p1266
I274
sS'americans'
p1267
I1288
sS'fast'
p1268
I1751
sS'rink'
p1269
I1290
sS'spanish'
p1270
I1033
sS'vote'
p1271
I1292
sS'message'
p1272
I1293
sS'open'
p1273
I1294
sS'tomorrow'
p1274
I1295
sS'size'
p1275
I342
sS'iam'
p1276
I1297
sS'city'
p1277
I1298
sS'little'
p1278
I1299
sS'necessarily'
p1279
I1300
sS'silent'
p1280
I1302
sS'caught'
p1281
I1303
sS'trillion'
p1282
I1304
sS'carson'
p1283
I1306
sS'cooling'
p1284
I1307
sS'gasen'
p1285
I2702
sS'lobbyists'
p1286
I1309
sS'convention'
p1287
I1310
sS'white'
p1288
I1311
sS'mittromney'
p1289
I3649
sS'national'
p1290
I3285
sS'speaking'
p1291
I142
sS'gives'
p1292
I1314
sS'eyes'
p1293
I1315
sS'releases'
p1294
I1316
sS'that'
p1295
I1317
sS'pittsburgh'
p1296
I1318
sS'season'
p1297
I1319
sS'released'
p1298
I1322
sS'hillary'
p1299
I1323
sS'rupertmurdoch'
p1300
I1324
sS'lodgeatdoonbeg'
p1301
I1325
sS'shirley'
p1302
I1326
sS'copy'
p1303
I1327
sS'surged'
p1304
I1328
sS'than'
p1305
I1329
sS'becuz'
p1306
I1330
sS'milton'
p1307
I1331
sS'kdawnpatterson'
p1308
I487
sS'television'
p1309
I1333
sS'translate'
p1310
I2705
sS'favors'
p1311
I1334
sS'troylaneroberts'
p1312
I1335
sS'r'
p1313
I543
sS'were'
p1314
I1337
sS'cards'
p1315
I1338
sS'marines'
p1316
I1340
sS'russia'
p1317
I1341
sS'and'
p1318
I1342
sS'lmowle'
p1319
I1343
sS'san'
p1320
I587
sS'poppawub'
p1321
I1345
sS'appreciate'
p1322
I1346
sS'topics'
p1323
I1347
sS'turned'
p1324
I1348
sS'argument'
p1325
I1349
sS'sad'
p1326
I1350
sS'say'
p1327
I1352
sS'slam'
p1328
I1353
sS'erictrump'
p1329
I1354
sS'anger'
p1330
I1355
sS'breakfast'
p1331
I1356
sS'recover'
p1332
I1357
sS'saw'
p1333
I1358
sS'any'
p1334
I1359
sS'kevin'
p1335
I1360
sS'sat'
p1336
I1361
sS'prosperity'
p1337
I1363
sS'conversion'
p1338
I1364
sS'sport'
p1339
I1480
sS'corbett'
p1340
I1366
sS'overcoming'
p1341
I705
sS'expires'
p1342
I783
sS'terrific'
p1343
I1369
sS'other'
p1344
I3647
sS'clintons'
p1345
I719
sS'potential'
p1346
I1371
sS'take'
p1347
I1372
sS'online'
p1348
I1374
sS'bailey'
p1349
I1375
sS'destroy'
p1350
I733
sS'wonder'
p1351
I1482
sS'jaysuch'
p1352
I1378
sS'afghanis'
p1353
I1380
sS'thug'
p1354
I3407
sS'sure'
p1355
I1381
sS'norman'
p1356
I1382
sS'trace'
p1357
I1383
sS'opposite'
p1358
I1384
sS'track'
p1359
I1385
sS'price'
p1360
I1286
sS'precluded'
p1361
I1050
sS'spewing'
p1362
I1388
sS'paid'
p1363
I1389
sS'theminifed'
p1364
I891
sS'donation'
p1365
I1391
sS'importantly'
p1366
I1392
sS'knowingly'
p1367
I824
sS'pages'
p1368
I1395
sS'michelle'
p1369
I1396
sS'cuban'
p1370
I1397
sS'amtrak'
p1371
I1398
sS'considered'
p1372
I1399
sS'phil'
p1373
I872
sS'steady'
p1374
I1402
sS'hungry'
p1375
I1403
sS'crooked'
p1376
I1485
sS'elie'
p1377
I3221
sS'danabrams'
p1378
I1405
sS'professional'
p1379
I1406
sS'senior'
p1380
I1407
sS'axl'
p1381
I1408
sS'laws'
p1382
I1409
sS'rating'
p1383
I1410
sS'medalist'
p1384
I1411
sS'shot'
p1385
I1412
sS'solar'
p1386
I1413
sS'show'
p1387
I1414
sS'windfarms'
p1388
I944
sS'turnberry'
p1389
I1416
sS'recipe'
p1390
I1417
sS'discovered'
p1391
I964
sS'jepsen'
p1392
I1420
sS'scarce'
p1393
I1421
sS'pacific'
p1394
I2714
sS'ground'
p1395
I1423
sS'slot'
p1396
I1424
sS'slow'
p1397
I1425
sS'zed'
p1398
I1426
sS'knicks'
p1399
I1427
sS'criminals'
p1400
I1422
sS'treasure'
p1401
I1429
sS'robs'
p1402
I1430
sS'outside'
p1403
I1490
sS'crime'
p1404
I1432
sS'overruns'
p1405
I1433
sS'only'
p1406
I1434
sS'going'
p1407
I1435
sS'black'
p1408
I1436
sS'aldridge'
p1409
I2719
sS'treasury'
p1410
I1438
sS'watching'
p1411
I3254
sS'robb'
p1412
I1439
sS'congressional'
p1413
I1440
sS'carolina'
p1414
I1441
sS'palos'
p1415
I1442
sS'ranking'
p1416
I1443
sS'get'
p1417
I1444
sS'contracts'
p1418
I1445
sS'cannon'
p1419
I1446
sS'tedcruz'
p1420
I1447
sS'samuel'
p1421
I1120
sS'designated'
p1422
I1123
sS'counsel'
p1423
I1450
sS'truly'
p1424
I1451
sS'crude'
p1425
I3308
sS'killers'
p1426
I1453
sS'richardbranson'
p1427
I1456
sS'celebrate'
p1428
I1182
sS'prime'
p1429
I1188
sS'borrow'
p1430
I1460
sS'joebiden'
p1431
I1461
sS'morning'
p1432
I1462
sS'stupid'
p1433
I1463
sS'clowns'
p1434
I1249
sS'predicted'
p1435
I1465
sS'vito'
p1436
I1466
sS'pants'
p1437
I3313
sS'where'
p1438
I1468
sS'daremagic'
p1439
I820
sS'golfdigestmag'
p1440
I1470
sS'ignored'
p1441
I1471
sS'sammypotatoes'
p1442
I1472
sS'honesty'
p1443
I1473
sS'elected'
p1444
I1474
sS'college'
p1445
I1339
sS'seal'
p1446
I1476
sS'apologies'
p1447
I1477
sS'collects'
p1448
I1478
sS'calendar'
p1449
I1479
sS'roseburg'
p1450
I1365
sS'dmartosko'
p1451
I1481
sS'europeans'
p1452
I1377
sS'israeli'
p1453
I1483
sS'cbsnews'
p1454
I1484
sS'federal'
p1455
I1404
sS'jeter'
p1456
I1486
sS'review'
p1457
I1487
sS'opening'
p1458
I3316
sS'outsourcing'
p1459
I1488
sS'weapons'
p1460
I1489
sS'enough'
p1461
I1431
sS'briannedmr'
p1462
I1491
sS'between'
p1463
I1492
sS'streaming'
p1464
I2626
sS'jaseduckman'
p1465
I3642
sS'reading'
p1466
I1493
sS'checks'
p1467
I521
sS'caucus'
p1468
I1495
sS'beautifulblusky'
p1469
I1496
sS'punta'
p1470
I1497
sS'notice'
p1471
I1498
sS'infrastructure'
p1472
I1499
sS'jobs'
p1473
I1500
sS'screen'
p1474
I1501
sS'jp'
p1475
I1502
sS'killing'
p1476
I1503
sS'blame'
p1477
I1504
sS'awards'
p1478
I1505
sS'jj'
p1479
I1506
sS'article'
p1480
I1507
sS'cities'
p1481
I1508
sS'come'
p1482
I1509
sS'danamira'
p1483
I1510
sS'concentrated'
p1484
I1511
sS'libya'
p1485
I1512
sS'kicking'
p1486
I3318
sS'many'
p1487
I1514
sS'missusa'
p1488
I1515
sS'according'
p1489
I1516
sS'contract'
p1490
I1517
sS'amandatmiller'
p1491
I1518
sS's'
p1492
I1519
sS'awkward'
p1493
I2051
sS'senator'
p1494
I1520
sS'nykea'
p1495
I1521
sS'comes'
p1496
I1522
sS'duty'
p1497
I1523
sS'among'
p1498
I1524
sS'madness'
p1499
I1525
sS'cancer'
p1500
I1526
sS'color'
p1501
I1527
sS'resentment'
p1502
I1528
sS'anti'
p1503
I1529
sS'meetthepress'
p1504
I1683
sS'disgrace'
p1505
I197
sS'poll'
p1506
I1532
sS'save'
p1507
I1534
sS'fault'
p1508
I3392
sS'cares'
p1509
I1535
sS'west'
p1510
I1536
sS'rebuild'
p1511
I1537
sS'airlines'
p1512
I902
sS'liketim'
p1513
I1539
sS'mark'
p1514
I1540
sS'punished'
p1515
I1541
sS'escalates'
p1516
I426
sS'wants'
p1517
I1543
sS'offered'
p1518
I1545
sS'formed'
p1519
I1546
sS'andrew'
p1520
I1825
sS'tiger'
p1521
I1549
sS'photos'
p1522
I1550
sS'wake'
p1523
I1551
sS'votetrump'
p1524
I1552
sS'penn'
p1525
I2123
sS'careful'
p1526
I1553
sS'fanastic'
p1527
I1056
sS'those'
p1528
I1555
sS'paying'
p1529
I1556
sS'myself'
p1530
I1557
sS'developing'
p1531
I1558
sS'these'
p1532
I1559
sS'oscarbagpledge'
p1533
I2717
sS'polls'
p1534
I1560
sS'straighten'
p1535
I1561
sS'arnold'
p1536
I1562
sS'cast'
p1537
I2639
sS'sometime'
p1538
I1565
sS'policies'
p1539
I1566
sS'cancelled'
p1540
I1567
sS'situation'
p1541
I1568
sS'skyhawk'
p1542
I1569
sS'margin'
p1543
I1570
sS'philosophies'
p1544
I1571
sS'fool'
p1545
I2129
sS'fashioned'
p1546
I1574
sS'mailonline'
p1547
I1999
sS'commander'
p1548
I1576
sS'couples'
p1549
I1577
sS'middle'
p1550
I1578
sS'someone'
p1551
I1579
sS'clutter'
p1552
I1580
sS'tigerwoods'
p1553
I1581
sS'donating'
p1554
I1582
sS'kenya'
p1555
I1583
sS'sitles'
p1556
I1584
sS'obnoxious'
p1557
I1585
sS'fame'
p1558
I1586
sS'worry'
p1559
I1587
sS'tourist'
p1560
I1588
sS'party'
p1561
I3419
sS'different'
p1562
I1589
sS'bowe'
p1563
I2079
sS'rooting'
p1564
I2084
sS'marcorubio'
p1565
I1105
sS'media'
p1566
I1593
sS'bowl'
p1567
I1594
sS'tour'
p1568
I1595
sS'chuffman'
p1569
I1596
sS'food'
p1570
I2133
sS'busted'
p1571
I3336
sS'followers'
p1572
I520
sS'negotiations'
p1573
I885
sS'dealt'
p1574
I2833
sS'lettyntx'
p1575
I1599
sS'events'
p1576
I1600
sS'moronic'
p1577
I1601
sS'week'
p1578
I858
sS'jeffrey'
p1579
I1603
sS'oil'
p1580
I1604
sS'demoss'
p1581
I1605
sS'anndromney'
p1582
I1606
sS'nj'
p1583
I1607
sS'running'
p1584
I1608
sS'billygraham'
p1585
I1609
sS'favorites'
p1586
I1610
sS'changing'
p1587
I1611
sS'totally'
p1588
I1613
sS'wholeness'
p1589
I1614
sS'nyrangers'
p1590
I1616
sS'largely'
p1591
I1617
sS'pennsylvania'
p1592
I1618
sS'bodied'
p1593
I1619
sS'replace'
p1594
I2763
sS'know'
p1595
I3492
sS'without'
p1596
I1620
sS'relief'
p1597
I2311
sS'trains'
p1598
I1623
sS'model'
p1599
I1624
sS'amazed'
p1600
I1626
sS'gdp'
p1601
I1627
sS'morons'
p1602
I1628
sS'lightweights'
p1603
I2747
sS'being'
p1604
I1631
sS'tip'
p1605
I295
sS'unconstitutional'
p1606
I1633
sS'valuable'
p1607
I1634
sS'kill'
p1608
I1635
sS'windfarm'
p1609
I1636
sS'kasich'
p1610
I1637
sS'touch'
p1611
I1638
sS'pols'
p1612
I1639
sS'baldwin'
p1613
I1640
sS'perilous'
p1614
I1641
sS'blow'
p1615
I1642
sS'announcement'
p1616
I1643
sS'death'
p1617
I1644
sS'ny'
p1618
I1645
sS'thinking'
p1619
I1646
sS'rose'
p1620
I1647
sS'except'
p1621
I1648
sS'trumpgolfla'
p1622
I1649
sS'lets'
p1623
I1650
sS'treatment'
p1624
I1651
sS'disputing'
p1625
I1652
sS'holdings'
p1626
I3567
sS'momentum'
p1627
I1653
sS'real'
p1628
I1654
sS'around'
p1629
I1655
sS'spectacular'
p1630
I1656
sS'read'
p1631
I1657
sS'regis'
p1632
I1658
sS'early'
p1633
I1659
sS'inflation'
p1634
I1660
sS'haaretzcom'
p1635
I1662
sS'world'
p1636
I1663
sS'accepted'
p1637
I1664
sS'lady'
p1638
I1665
sS'ruled'
p1639
I1666
sS'fortune'
p1640
I1668
sS'reduces'
p1641
I1669
sS'gyms'
p1642
I1670
sS'repubs'
p1643
I1671
sS'undermining'
p1644
I133
sS'audience'
p1645
I1673
sS'jase'
p1646
I3268
sS'donations'
p1647
I1674
sS'laughing'
p1648
I439
sS'always'
p1649
I2146
sS'pundits'
p1650
I1677
sS'tower'
p1651
I1678
sS'passionate'
p1652
I1679
sS'reform'
p1653
I3298
sS'scamming'
p1654
I1680
sS'picture'
p1655
I1681
sS'competition'
p1656
I1684
sS'hacks'
p1657
I130
sS'jacknicklaus'
p1658
I1686
sS'judybaldasaro'
p1659
I1687
sS'cruz'
p1660
I3489
sS'omikrondreamer'
p1661
I1688
sS'sen'
p1662
I1689
sS'intact'
p1663
I1690
sS'joan'
p1664
I1691
sS'users'
p1665
I2757
sS'herald'
p1666
I1693
sS'manipulator'
p1667
I1694
sS'spurs'
p1668
I3164
sS'memories'
p1669
I1695
sS'lucyjen'
p1670
I1697
sS'conservative'
p1671
I1698
sS'critical'
p1672
I1699
sS'deficit'
p1673
I1700
sS'willie'
p1674
I1701
sS'stclou'
p1675
I1702
sS'freed'
p1676
I1703
sS'destroys'
p1677
I1704
sS'biased'
p1678
I1705
sS'derekjeter'
p1679
I1706
sS'business'
p1680
I1707
sS'airways'
p1681
I1708
sS'problems'
p1682
I2760
sS'darknightrises'
p1683
I1710
sS'broken'
p1684
I1711
sS'leadership'
p1685
I1712
sS'ibdeditorials'
p1686
I1715
sS'throw'
p1687
I1716
sS'welch'
p1688
I1717
sS'on'
p1689
I1718
sS'central'
p1690
I1719
sS'oh'
p1691
I1720
sS'burnerirons'
p1692
I1721
sS'island'
p1693
I1722
sS'industry'
p1694
I1723
sS'violence'
p1695
I1630
sS'favorite'
p1696
I1725
sS'thousands'
p1697
I3247
sS'tremendous'
p1698
I3357
sS'medicare'
p1699
I1727
sS'stand'
p1700
I1728
sS'act'
p1701
I1729
sS'ou'
p1702
I1731
sS'investigators'
p1703
I2156
sS'os'
p1704
I1733
sS'or'
p1705
I1734
sS'howard'
p1706
I1736
sS'decimated'
p1707
I1737
sS'fundraising'
p1708
I1738
sS'marshmallow'
p1709
I1739
sS'malfunction'
p1710
I2158
sS'communication'
p1711
I1740
sS'spreading'
p1712
I1741
sS'lifted'
p1713
I1742
sS'snapchat'
p1714
I1743
sS'vacation'
p1715
I1538
sS'officially'
p1716
I1745
sS'rising'
p1717
I1746
sS'einstein'
p1718
I1747
sS'financial'
p1719
I288
sS'eatsleepdan'
p1720
I1749
sS'your'
p1721
I1750
sS'indebtedness'
p1722
I1592
sS'vikkitb'
p1723
I3469
sS'her'
p1724
I1752
sS'area'
p1725
I1753
sS'aren'
p1726
I1754
sS'usmc'
p1727
I1755
sS'there'
p1728
I1756
sS'jasonsweis'
p1729
I1757
sS'lol'
p1730
I1758
sS'dblsolo'
p1731
I1759
sS'start'
p1732
I1760
sS'low'
p1733
I1761
sS'lot'
p1734
I1762
sS'lou'
p1735
I1763
sS'pennjillette'
p1736
I1764
sS'energy'
p1737
I2163
sS'overpaid'
p1738
I1767
sS'continents'
p1739
I1769
sS'reduce'
p1740
I2165
sS'corsi'
p1741
I1772
sS'e'
p1742
I2772
sS'promote'
p1743
I1775
sS'with'
p1744
I1776
sS'borders'
p1745
I1542
sS'buying'
p1746
I1778
sS'happening'
p1747
I1779
sS'fraud'
p1748
I1780
sS'circulation'
p1749
I1781
sS'autism'
p1750
I3637
sS'interiors'
p1751
I1783
sS'geraldorivera'
p1752
I3309
sS'dirty'
p1753
I1785
sS'newtgingrich'
p1754
I1786
sS'politically'
p1755
I1787
sS'agree'
p1756
I1788
sS'detailed'
p1757
I1790
sS'gone'
p1758
I1791
sS'ac'
p1759
I1792
sS'leaked'
p1760
I2780
sS'ad'
p1761
I1794
sS'abusers'
p1762
I1795
sS'certain'
p1763
I1796
sS'aj'
p1764
I1797
sS'am'
p1765
I1798
sS'cbo'
p1766
I1799
sS'deep'
p1767
I1800
sS'an'
p1768
I1801
sS'cbs'
p1769
I1223
sS'as'
p1770
I1803
sS'daily'
p1771
I1428
sS'girlfriend'
p1772
I1805
sS'watched'
p1773
I1806
sS'moves'
p1774
I1807
sS'syrian'
p1775
I1808
sS'spends'
p1776
I1809
sS'incorrect'
p1777
I1810
sS'again'
p1778
I1811
sS'idiot'
p1779
I1812
sS'deserve'
p1780
I1813
sS'paulryanvp'
p1781
I1814
sS'tight'
p1782
I1768
sS'you'
p1783
I1816
sS'suites'
p1784
I1818
sS'brandi'
p1785
I1819
sS'donaldjtrumpjr'
p1786
I1821
sS'congress'
p1787
I1822
sS'detainees'
p1788
I1823
sS'cabraler'
p1789
I1824
sS'vp'
p1790
I3402
sS'gon'
p1791
I1826
sS'coverage'
p1792
I1827
sS'freeourmarine'
p1793
I1828
sS'tackle'
p1794
I1829
sS'brass'
p1795
I1830
sS'trumptrain'
p1796
I1831
sS'fiscal'
p1797
I1832
sS'calls'
p1798
I1833
sS'wife'
p1799
I1834
sS'waived'
p1800
I1835
sS'tricks'
p1801
I1836
sS'saved'
p1802
I1837
sS'fraudulent'
p1803
I1838
sS'u'
p1804
I1840
sS'nelson'
p1805
I1841
sS'jconstantinides'
p1806
I1842
sS'overseas'
p1807
I1843
sS'resolution'
p1808
I1844
sS'talentless'
p1809
I1845
sS'represent'
p1810
I1846
sS'all'
p1811
I1847
sS'silvermarie'
p1812
I253
sS'consider'
p1813
I1533
sS'chinese'
p1814
I1850
sS'ali'
p1815
I1851
sS'caused'
p1816
I1852
sS'dollar'
p1817
I1853
sS'month'
p1818
I1854
sS'bravest'
p1819
I1855
sS'unrest'
p1820
I1856
sS'coach'
p1821
I1362
sS'deadline'
p1822
I1858
sS'welfare'
p1823
I1859
sS'cameron'
p1824
I1454
sS'follow'
p1825
I1861
sS'mason'
p1826
I1862
sS'decisions'
p1827
I1863
sS'als'
p1828
I74
sS'causes'
p1829
I78
sS'apartment'
p1830
I1866
sS'number'
p1831
I2226
sS'catastrophe'
p1832
I1867
sS'forte'
p1833
I1868
sS'tv'
p1834
I1869
sS'opportunities'
p1835
I120
sS'former'
p1836
I153
sS'to'
p1837
I1874
sS'nmbr'
p1838
I1875
sS'th'
p1839
I1876
sS'safety'
p1840
I2184
sS'enjoying'
p1841
I160
sS'presentation'
p1842
I1880
sS'mandela'
p1843
I1881
sS'case'
p1844
I1882
sS'minted'
p1845
I1884
sS'worse'
p1846
I1885
sS'confidential'
p1847
I1886
sS'song'
p1848
I190
sS'very'
p1849
I1888
sS'rod'
p1850
I1889
sS'sexting'
p1851
I3169
sS'fat'
p1852
I210
sS'trillions'
p1853
I1891
sS'fan'
p1854
I229
sS'decide'
p1855
I1893
sS'fall'
p1856
I236
sS'sony'
p1857
I1895
sS'ticket'
p1858
I1896
sS'austerity'
p1859
I1897
sS'strand'
p1860
I1898
sS'treating'
p1861
I1899
sS'moines'
p1862
I1900
sS'cable'
p1863
I1901
sS'stimulus'
p1864
I1902
sS'celebrity'
p1865
I1903
sS'bhanks'
p1866
I3387
sS'list'
p1867
I1904
sS'large'
p1868
I1905
sS'saudi'
p1869
I1906
sS'liars'
p1870
I1907
sS'megynkelly'
p1871
I1908
sS'small'
p1872
I1909
sS'study'
p1873
I1910
sS'maggie'
p1874
I1911
sS'malachino'
p1875
I1912
sS'ten'
p1876
I357
sS'beachhome'
p1877
I2178
sS'tea'
p1878
I1914
sS'streets'
p1879
I1915
sS'ted'
p1880
I1916
sS'mrinsaf'
p1881
I378
sS'past'
p1882
I1918
sS'discussing'
p1883
I2087
sS'zero'
p1884
I388
sS'design'
p1885
I1920
sS'lawyer'
p1886
I1921
sS'pass'
p1887
I1922
sS'nbc'
p1888
I1923
sS'midastouch'
p1889
I407
sS'investment'
p1890
I1925
sS'returned'
p1891
I1926
sS'dunn'
p1892
I2192
sS'putting'
p1893
I2818
sS'will'
p1894
I3390
sS'sue'
p1895
I431
sS'abc'
p1896
I1930
sS'cues'
p1897
I436
sS'brien'
p1898
I1932
sS'menswear'
p1899
I443
sS'clock'
p1900
I1934
sS'investing'
p1901
I1935
sS'deeply'
p1902
I450
sS'wrecked'
p1903
I1937
sS'protesting'
p1904
I3616
sS'rezko'
p1905
I1938
sS'anniversary'
p1906
I1939
sS'centers'
p1907
I2793
sS'apologized'
p1908
I1941
sS'arizonanflfan'
p1909
I1942
sS'public'
p1910
I506
sS'clare'
p1911
I2894
sS'movement'
p1912
I1944
sS'turmoil'
p1913
I1946
sS'full'
p1914
I1947
sS'christian'
p1915
I528
sS'lobbyist'
p1916
I552
sS'kwierzba'
p1917
I1950
sS'rigged'
p1918
I2889
sS'shouldn'
p1919
I1952
sS'disastrous'
p1920
I1953
sS'jonas'
p1921
I1954
sS'nymag'
p1922
I1955
sS'hmmmm'
p1923
I1956
sS'november'
p1924
I1957
sS'strong'
p1925
I589
sS'personable'
p1926
I1959
sS'arena'
p1927
I1960
sS'almost'
p1928
I3398
sS'bible'
p1929
I1961
sS'ahead'
p1930
I618
sS'inspired'
p1931
I1963
sS'thursday'
p1932
I1871
sS'exceptionally'
p1933
I638
sS'telecast'
p1934
I643
sS'brutal'
p1935
I1967
sS'trillacamila'
p1936
I1968
sS'amount'
p1937
I1969
sS'advertising'
p1938
I1970
sS'skyrocket'
p1939
I1971
sS'social'
p1940
I670
sS'action'
p1941
I1973
sS'seanbarakett'
p1942
I1974
sS'via'
p1943
I1975
sS'megyn'
p1944
I1976
sS'family'
p1945
I1977
sS'father'
p1946
I1979
sS'africa'
p1947
I1980
sS'thatcher'
p1948
I1981
sS'put'
p1949
I2203
sS'vip'
p1950
I1983
sS'muslim'
p1951
I1985
sS'medvedevrussiae'
p1952
I1986
sS'actress'
p1953
I2768
sS'khan'
p1954
I1988
sS'takes'
p1955
I1989
sS'stander'
p1956
I806
sS'contains'
p1957
I1991
sS'two'
p1958
I1992
sS'damaged'
p1959
I1993
sS'steinbrenner'
p1960
I1994
sS'fragrance'
p1961
I1995
sS'gorgeous'
p1962
I1996
sS'taken'
p1963
I1997
sS'oreillyfactor'
p1964
I2000
sS'more'
p1965
I2001
sS'lowering'
p1966
I2002
sS'israel'
p1967
I2003
sS'knows'
p1968
I2004
sS'company'
p1969
I2005
sS'traceadkins'
p1970
I2006
sS'broke'
p1971
I2007
sS'known'
p1972
I2008
sS'glad'
p1973
I2010
sS'luv'
p1974
I2011
sS'town'
p1975
I2012
sS'respected'
p1976
I2656
sS'none'
p1977
I956
sS'debates'
p1978
I2016
sS'hour'
p1979
I2017
sS'canceled'
p1980
I1625
sS'science'
p1981
I2019
sS'des'
p1982
I2020
sS'remain'
p1983
I2021
sS'bias'
p1984
I2022
sS'del'
p1985
I247
sS'dem'
p1986
I2024
sS'morgan'
p1987
I2025
sS'learn'
p1988
I2026
sS'embrace'
p1989
I2027
sS'marthastewart'
p1990
I2028
sS'myhealthcoach'
p1991
I3195
sS'history'
p1992
I2030
sS'beautiful'
p1993
I2031
sS'shark'
p1994
I2032
sS'scam'
p1995
I2033
sS'adviser'
p1996
I1137
sS'ps'
p1997
I3543
sS'accept'
p1998
I2036
sS'boycott'
p1999
I2037
sS'states'
p2000
I2038
sS'biden'
p2001
I1069
sS'minimum'
p2002
I2040
sS'numbers'
p2003
I2041
sS'sense'
p2004
I2042
sS'sharp'
p2005
I2043
sS'dress'
p2006
I2044
sS'huge'
p2007
I2046
sS'needs'
p2008
I2047
sS'answer'
p2009
I2048
sS'court'
p2010
I2049
sS'therealryanmatt'
p2011
I2050
sS'mangieri'
p2012
I346
sS'rather'
p2013
I2052
sS'imminent'
p2014
I2053
sS'plans'
p2015
I2054
sS'breaking'
p2016
I1157
sS'jihadi'
p2017
I2056
sS'businessinsider'
p2018
I2058
sS'gisele'
p2019
I2059
sS'explains'
p2020
I2060
sS'idaho'
p2021
I2061
sS'competed'
p2022
I2062
sS'schultz'
p2023
I2063
sS'simplicity'
p2024
I2064
sS'continues'
p2025
I2813
sS'ft'
p2026
I2066
sS'intended'
p2027
I1236
sS'spitzer'
p2028
I1240
sS'akudej'
p2029
I2069
sS'advice'
p2030
I2070
sS'sophistication'
p2031
I1263
sS'panoramic'
p2032
I1269
sS'plane'
p2033
I2073
sS'coming'
p2034
I2074
sS'rudy'
p2035
I1730
sS'axlrose'
p2036
I2076
sS'fl'
p2037
I2077
sS'response'
p2038
I2078
sS'a'
p2039
I2080
sS'refuse'
p2040
I2081
sS'brady'
p2041
I2082
sS'tweeting'
p2042
I918
sS'thefamilyleader'
p2043
I1253
sS'anytime'
p2044
I2086
sS'coal'
p2045
I1367
sS'broadcasting'
p2046
I2088
sS'responsibility'
p2047
I2089
sS'pay'
p2048
I2090
sS'banks'
p2049
I2091
sS'pleasure'
p2050
I1393
sS'xxx'
p2051
I3656
sS'rodmonium'
p2052
I2093
sS'dream'
p2053
I2094
sS'playing'
p2054
I2095
sS'mexican'
p2055
I2096
sS'help'
p2056
I2097
sS'september'
p2057
I2098
sS'soon'
p2058
I821
sS'trade'
p2059
I2100
sS'held'
p2060
I2101
sS'attitude'
p2061
I2102
sS'embassy'
p2062
I1622
sS'through'
p2063
I2104
sS'same'
p2064
I2105
sS'committee'
p2065
I2106
sS'signs'
p2066
I2107
sS'hell'
p2067
I2108
sS'turbine'
p2068
I2109
sS'cheated'
p2069
I2110
sS'avenue'
p2070
I2111
sS'its'
p2071
I2112
sS'winger'
p2072
I2113
sS'minga'
p2073
I2114
sS'style'
p2074
I2115
sS'rapidly'
p2075
I2116
sS'shortstop'
p2076
I2117
sS'actually'
p2077
I2118
sS'late'
p2078
I2119
sS'resort'
p2079
I2120
sS'scot'
p2080
I2121
sS'stephen'
p2081
I2122
sS'speech'
p2082
I1598
sS'governments'
p2083
I2124
sS'might'
p2084
I2125
sS'upping'
p2085
I2126
sS'ally'
p2086
I2127
sS'danielgenseric'
p2087
I2128
sS'teamtrump'
p2088
I1572
sS'wouldn'
p2089
I2130
sS'ipatriotmedia'
p2090
I332
sS'return'
p2091
I404
sS'ceo'
p2092
I1597
sS'largest'
p2093
I3418
sS'salamander'
p2094
I2135
sS'anticipated'
p2095
I1612
sS'olivia'
p2096
I2137
sS'belittle'
p2097
I2138
sS'foot'
p2098
I2139
sS'yr'
p2099
I1883
sS'complain'
p2100
I2141
sS'bigger'
p2101
I499
sS'easily'
p2102
I2144
sS'stated'
p2103
I1048
sS'rant'
p2104
I2145
sS'fully'
p2105
I1676
sS'drake'
p2106
I2147
sS'bless'
p2107
I1106
sS'legend'
p2108
I2149
sS'goofy'
p2109
I2150
sS'stopped'
p2110
I2151
sS'pan'
p2111
I2152
sS'die'
p2112
I2153
sS'found'
p2113
I1714
sS'deals'
p2114
I2829
sS'trailer'
p2115
I2155
sS'referred'
p2116
I1732
sS'barrels'
p2117
I2157
sS'breakdown'
p2118
I1602
sS'everyone'
p2119
I2159
sS'weight'
p2120
I2161
sS'house'
p2121
I2162
sS'tiffany'
p2122
I1766
sS'hard'
p2123
I2164
sS'sintianiej'
p2124
I1770
sS'idea'
p2125
I2166
sS'accidentally'
p2126
I2167
sS'clockwork'
p2127
I2168
sS'putin'
p2128
I2169
sS'expect'
p2129
I1789
sS'michaelmeram'
p2130
I2171
sS'advertisers'
p2131
I2172
sS'event'
p2132
I2173
sS'really'
p2133
I2174
sS'anxious'
p2134
I2009
sS'funding'
p2135
I2176
sS'missed'
p2136
I2177
sS'p'
p2137
I974
sS'robert'
p2138
I2179
sS'since'
p2139
I2180
sS'shannonfamini'
p2140
I2183
sS'rinos'
p2141
I1878
sS'shipment'
p2142
I2185
sS'darling'
p2143
I2186
sS'issue'
p2144
I2187
sS'highway'
p2145
I2188
sS'anthonyweiner'
p2146
I3587
sS'benjamin'
p2147
I2189
sS'reporting'
p2148
I3429
sS'wisconsin'
p2149
I2191
sS'belief'
p2150
I1927
sS'pathetic'
p2151
I2193
sS'lawrence'
p2152
I2194
sS'friday'
p2153
I2195
sS'guess'
p2154
I2235
sS'jmcafee'
p2155
I2197
sS'difficulty'
p2156
I2198
sS'qualify'
p2157
I1966
sS'base'
p2158
I2200
sS'ppppolls'
p2159
I2201
sS'imagine'
p2160
I2202
sS'ask'
p2161
I1982
sS'matthews'
p2162
I347
sS'beginning'
p2163
I2205
sS'algae'
p2164
I2206
sS'bushes'
p2165
I2207
sS'definition'
p2166
I2208
sS'owners'
p2167
I2209
sS'benefits'
p2168
I2210
sS'jet'
p2169
I2238
sS'launch'
p2170
I2212
sS'terrible'
p2171
I2214
sS'americas'
p2172
I2215
sS'american'
p2173
I2216
sS'expecting'
p2174
I2217
sS'w'
p2175
I2219
sS'syria'
p2176
I2220
sS'pilots'
p2177
I2221
sS'major'
p2178
I2222
sS'feel'
p2179
I2223
sS'radical'
p2180
I2224
sS'bullies'
p2181
I219
sS'olympic'
p2182
I636
sS'melrivers'
p2183
I1386
sS'vetos'
p2184
I2229
sS'brave'
p2185
I2230
sS'dominating'
p2186
I2154
sS'miss'
p2187
I2232
sS'jessyandcandy'
p2188
I2182
sS'arbitration'
p2189
I2234
sS'story'
p2190
I2196
sS'heads'
p2191
I2236
sS'guest'
p2192
I2237
sS'guaranteeing'
p2193
I2211
sS'introduction'
p2194
I2239
sS'leading'
p2195
I2240
sS'interviews'
p2196
I2241
sS'brava'
p2197
I2242
sS'shooting'
p2198
I3636
sS'deanna'
p2199
I2243
sS'least'
p2200
I2244
sS'shelves'
p2201
I2245
sS'ohbehave'
p2202
I2838
sS'wonderful'
p2203
I2247
sS'jef'
p2204
I2248
sS'noticed'
p2205
I3591
sS'passed'
p2206
I1839
sS'pence'
p2207
I2250
sS'muggers'
p2208
I2251
sS'selling'
p2209
I2252
sS'statement'
p2210
I2249
sS'relationship'
p2211
I2254
sS'behind'
p2212
I2255
sS'hotel'
p2213
I2257
sS'park'
p2214
I2258
sS'interviewed'
p2215
I2259
sS'immediate'
p2216
I2260
sS'condoleezza'
p2217
I2261
sS'part'
p2218
I2262
sS'dissemble'
p2219
I2263
sS'focusing'
p2220
I2264
sS'believe'
p2221
I2265
sS'rampant'
p2222
I2266
sS'explodes'
p2223
I2267
sS'obama'
p2224
I2268
sS'kind'
p2225
I2269
sS'recieved'
p2226
I1945
sS'aaa'
p2227
I2271
sS'ohme'
p2228
I2272
sS'horizons'
p2229
I557
sS'gotten'
p2230
I2274
sS'michellemalkin'
p2231
I2275
sS'illegals'
p2232
I2276
sS'friedman'
p2233
I1418
sS'determined'
p2234
I2277
sS'architect'
p2235
I2278
sS'insulted'
p2236
I2279
sS'susteren'
p2237
I2280
sS'toward'
p2238
I2281
sS'treated'
p2239
I2282
sS'charlotte'
p2240
I2283
sS'motivation'
p2241
I2284
sS'obstacles'
p2242
I2285
sS'uncomfortable'
p2243
I2842
sS'texans'
p2244
I1784
sS'blewthebigone'
p2245
I2288
sS'well'
p2246
I3446
sS'grandaughter'
p2247
I2290
sS'novak'
p2248
I2291
sS'juice'
p2249
I2292
sS'billrancic'
p2250
I2293
sS'meltdown'
p2251
I2295
sS'philly'
p2252
I2296
sS'dutchess'
p2253
I2297
sS'sell'
p2254
I2298
sS'ratings'
p2255
I2299
sS'nights'
p2256
I2300
sS'built'
p2257
I2301
sS'cnni'
p2258
I2843
sS'lin'
p2259
I1877
sS'scotland'
p2260
I2305
sS'officers'
p2261
I2306
sS'also'
p2262
I2307
sS'costs'
p2263
I2308
sS'chairman'
p2264
I2310
sS'club'
p2265
I2748
sS'play'
p2266
I2312
sS'added'
p2267
I983
sS'electric'
p2268
I2314
sS'dayton'
p2269
I2315
sS'serve'
p2270
I2316
sS'approves'
p2271
I2317
sS'reach'
p2272
I2318
sS'most'
p2273
I2319
sS'hired'
p2274
I2320
sS'pulled'
p2275
I3205
sS'plan'
p2276
I2321
sS'nothing'
p2277
I2322
sS'seasons'
p2278
I2323
sS'kay'
p2279
I2324
sS'wisdom'
p2280
I2325
sS'stands'
p2281
I2175
sS'salary'
p2282
I2328
sS'understands'
p2283
I2329
sS'clear'
p2284
I2330
sS'sometimes'
p2285
I2331
sS'cover'
p2286
I2332
sS'corzine'
p2287
I2333
sS'charitable'
p2288
I2334
sS'bureaucrats'
p2289
I2335
sS'foxandfriends'
p2290
I2336
sS'clements'
p2291
I2337
sS'clean'
p2292
I2338
sS'ariannahuff'
p2293
I1144
sS'diverse'
p2294
I2737
sS'attacking'
p2295
I2340
sS'perseverance'
p2296
I2341
sS'golf'
p2297
I2343
sS'rebels'
p2298
I2344
sS'gold'
p2299
I2345
sS'afghani'
p2300
I2346
sS'gitmo'
p2301
I2347
sS'johnnyobots'
p2302
I2348
sS'alexsalmond'
p2303
I2349
sS'businesses'
p2304
I2350
sS'stalker'
p2305
I2351
sS'font'
p2306
I2353
sS'find'
p2307
I2354
sS'costing'
p2308
I2355
sS'impact'
p2309
I2356
sS'current'
p2310
I2357
sS'austinroneil'
p2311
I2358
sS'keychain'
p2312
I2359
sS'justice'
p2313
I1661
sS'nervous'
p2314
I2361
sS'ruin'
p2315
I2362
sS'writer'
p2316
I2363
sS'unhappy'
p2317
I2364
sS'adamogdenceo'
p2318
I2365
sS'penalty'
p2319
I2366
sS'failed'
p2320
I2367
sS'email'
p2321
I3311
sS'unilaterally'
p2322
I2368
sS'money'
p2323
I1793
sS'apprentice'
p2324
I2370
sS'discuss'
p2325
I2371
sS'his'
p2326
I2372
sS'hit'
p2327
I2373
sS'cheaper'
p2328
I2374
sS'remedy'
p2329
I2375
sS'b'
p2330
I2270
sS'hid'
p2331
I2377
sS'actions'
p2332
I2378
sS'schemer'
p2333
I2379
sS'hig'
p2334
I1817
sS'during'
p2335
I2381
sS'frightening'
p2336
I2382
sS'emails'
p2337
I757
sS'enemy'
p2338
I2386
sS'resolve'
p2339
I2387
sS'hits'
p2340
I3329
sS'inductee'
p2341
I2390
sS'sacrifices'
p2342
I2391
sS'mikeandmike'
p2343
I2273
sS'common'
p2344
I2393
sS'golfmagazine'
p2345
I2394
sS'activity'
p2346
I2395
sS'x'
p2347
I2396
sS'ivanka'
p2348
I2397
sS'wheeling'
p2349
I2398
sS'set'
p2350
I2399
sS'art'
p2351
I2400
sS'intelligence'
p2352
I2401
sS'spend'
p2353
I2562
sS'uses'
p2354
I2547
sS'see'
p2355
I2402
sS'defense'
p2356
I2403
sS'dumb'
p2357
I2404
sS'are'
p2358
I2405
sS'kmovnewsfeed'
p2359
I2406
sS'close'
p2360
I398
sS'aberdeen'
p2361
I2408
sS'retweet'
p2362
I2409
sS'tahmooressi'
p2363
I2410
sS'threats'
p2364
I2411
sS'marklevinshow'
p2365
I2412
sS'negotiator'
p2366
I2413
sS'resolute'
p2367
I2414
sS'pictures'
p2368
I2415
sS'wow'
p2369
I2416
sS'exchange'
p2370
I2863
sS'please'
p2371
I2418
sS'flgovscott'
p2372
I2419
sS'fans'
p2373
I2420
sS'won'
p2374
I2421
sS'various'
p2375
I2422
sS'durst'
p2376
I381
sS'donate'
p2377
I2424
sS'corruption'
p2378
I2425
sS'compliment'
p2379
I2426
sS'wiesel'
p2380
I2427
sS'available'
p2381
I64
sS'cariread'
p2382
I2140
sS'genes'
p2383
I581
sS'recently'
p2384
I2430
sS'creating'
p2385
I2431
sS'tirade'
p2386
I2432
sS'masterful'
p2387
I293
sS'attention'
p2388
I2434
sS'poorer'
p2389
I2435
sS'ranked'
p2390
I273
sS'opposition'
p2391
I2437
sS'pissed'
p2392
I2438
sS'empowering'
p2393
I2225
sS'c'
p2394
I2440
sS'last'
p2395
I2441
sS'mega'
p2396
I2442
sS'celebapprentice'
p2397
I2443
sS'secrets'
p2398
I2444
sS'annual'
p2399
I2445
sS'immoral'
p2400
I3051
sS'foreign'
p2401
I2446
sS'canadians'
p2402
I2447
sS'focused'
p2403
I2449
sS'approve'
p2404
I2450
sS'spree'
p2405
I3435
sS'millions'
p2406
I1296
sS'guts'
p2407
I2451
sS'este'
p2408
I1043
sS'simple'
p2409
I2045
sS'address'
p2410
I2454
sS'community'
p2411
I2455
sS'coincidence'
p2412
I2456
sS'tennessee'
p2413
I2457
sS'simply'
p2414
I2458
sS'likes'
p2415
I2459
sS'scottish'
p2416
I2460
sS'throughout'
p2417
I2461
sS'along'
p2418
I2462
sS'hannity'
p2419
I2463
sS'decline'
p2420
I2464
sS'arsenal'
p2421
I2136
sS'raise'
p2422
I2465
sS'arrest'
p2423
I2466
sS'stamp'
p2424
I2384
sS'create'
p2425
I2468
sS'msjackiewow'
p2426
I2287
sS'political'
p2427
I2470
sS'due'
p2428
I2471
sS'strategy'
p2429
I2472
sS'hitting'
p2430
I2473
sS'suburbs'
p2431
I2474
sS'secret'
p2432
I2475
sS'pa'
p2433
I3592
sS'complicated'
p2434
I2477
sS'ireland'
p2435
I2478
sS'mockingly'
p2436
I2479
sS'kieranlalor'
p2437
I2480
sS'meeting'
p2438
I2481
sS'skyward'
p2439
I2482
sS'pm'
p2440
I2483
sS'firm'
p2441
I2484
sS'sanders'
p2442
I2485
sS'lived'
p2443
I2486
sS'nro'
p2444
I2487
sS'champion'
p2445
I2488
sS'sending'
p2446
I2489
sS'fire'
p2447
I2490
sS'citizen'
p2448
I3479
sS'gas'
p2449
I2491
sS'storylines'
p2450
I2492
sS'else'
p2451
I2493
sS'anthony'
p2452
I2494
sS'fund'
p2453
I2495
sS'understand'
p2454
I2496
sS'demand'
p2455
I2497
sS'prices'
p2456
I2498
sS'despite'
p2457
I2499
sS'pizzaman'
p2458
I2500
sS'evangelical'
p2459
I2501
sS'politician'
p2460
I2502
sS'look'
p2461
I2503
sS'solid'
p2462
I2504
sS'straight'
p2463
I2505
sS'mumbling'
p2464
I50
sS'jessicahrabbit'
p2465
I54
sS'holocaust'
p2466
I58
sS'governor'
p2467
I2509
sS'healthy'
p2468
I2510
sS'while'
p2469
I2511
sS'smart'
p2470
I2512
sS'fun'
p2471
I2513
sS'transcripts'
p2472
I2514
sS'useless'
p2473
I3323
sS'pack'
p2474
I2515
sS'styles'
p2475
I2516
sS'wild'
p2476
I3393
sS'voters'
p2477
I2517
sS'cents'
p2478
I2518
sS'incredible'
p2479
I3445
sS'faceted'
p2480
I2519
sS'rip'
p2481
I2520
sS'jenniferjjacobs'
p2482
I159
sS'itself'
p2483
I2522
sS'demdebate'
p2484
I2523
sS'darrell'
p2485
I2524
sS'screws'
p2486
I2525
sS'ready'
p2487
I2526
sS'limit'
p2488
I3620
sS'rid'
p2489
I2527
sS'dannyzuker'
p2490
I2528
sS'concentration'
p2491
I2529
sS'increased'
p2492
I3484
sS'funny'
p2493
I2531
sS'anymore'
p2494
I2532
sS'grant'
p2495
I221
sS'gopdebate'
p2496
I2534
sS'rules'
p2497
I2535
sS'karl'
p2498
I2536
sS'grand'
p2499
I2537
sS'proved'
p2500
I1531
sS'ruth'
p2501
I2538
sS'higher'
p2502
I2539
sS'used'
p2503
I2540
sS'affairs'
p2504
I2541
sS'comprehensive'
p2505
I2542
sS'yesterday'
p2506
I326
sS'cement'
p2507
I2544
sS'alert'
p2508
I2545
sS'moment'
p2509
I2546
sS'megrahi'
p2510
I641
sS'yuan'
p2511
I2548
sS'retracted'
p2512
I2549
sS'amy'
p2513
I2550
sS'schneiderman'
p2514
I2552
sS'surrogate'
p2515
I2553
sS'try'
p2516
I2554
sS'mackette'
p2517
I2555
sS'anybody'
p2518
I403
sS'obviously'
p2519
I2557
sS'person'
p2520
I2558
sS'gaddafi'
p2521
I2559
sS'inspirational'
p2522
I2560
sS'y'
p2523
I432
sS'self'
p2524
I2304
sS'grossly'
p2525
I2563
sS'yankees'
p2526
I2564
sS'ambassador'
p2527
I2565
sS'andreatantaros'
p2528
I2566
sS'rosie'
p2529
I3289
sS'actuallydominic'
p2530
I2567
sS'birthday'
p2531
I3114
sS'cantget'
p2532
I2568
sS'shootings'
p2533
I2570
sS'questions'
p2534
I2571
sS'bluewaterdays'
p2535
I2388
sS'doral'
p2536
I2573
sS'praying'
p2537
I2574
sS'letting'
p2538
I547
sS'tables'
p2539
I551
sS'cut'
p2540
I2578
sS'majority'
p2541
I2580
sS'disappointed'
p2542
I2581
sS'workers'
p2543
I2582
sS'danger'
p2544
I2583
sS'exclusively'
p2545
I580
sS'barack'
p2546
I2585
sS'egypt'
p2547
I1573
sS'parents'
p2548
I2587
sS'location'
p2549
I2588
sS'win'
p2550
I2895
sS'boardroom'
p2551
I2590
sS'excited'
p2552
I2591
sS'hates'
p2553
I2592
sS'donaldtrumpfink'
p2554
I2593
sS'bin'
p2555
I2594
sS'cheryl'
p2556
I2595
sS'sharpton'
p2557
I1667
sS'march'
p2558
I648
sS'adversaries'
p2559
I2598
sS'big'
p2560
I2599
sS'showing'
p2561
I2600
sS'advocate'
p2562
I2601
sS'judgement'
p2563
I2602
sS'matters'
p2564
I2603
sS'game'
p2565
I2604
sS'quest'
p2566
I2605
sS'dearly'
p2567
I2606
sS'ecosystems'
p2568
I2607
sS'jimmyfallon'
p2569
I2608
sS'projects'
p2570
I2609
sS'd'
p2571
I2610
sS'heart'
p2572
I2893
sS'collect'
p2573
I771
sS'individuals'
p2574
I777
sS'surging'
p2575
I2614
sS'popular'
p2576
I2615
sS'weiner'
p2577
I2616
sS'harry'
p2578
I2617
sS'essential'
p2579
I2618
sS'partying'
p2580
I2620
sS'often'
p2581
I2621
sS'senate'
p2582
I832
sS'spring'
p2583
I2623
sS'some'
p2584
I2624
sS'back'
p2585
I2625
sS'georgewill'
p2586
I862
sS'towards'
p2587
I2313
sS'palm'
p2588
I2628
sS'miracle'
p2589
I1672
sS'thomtillis'
p2590
I876
sS'delivered'
p2591
I2631
sS'jewelry'
p2592
I2632
sS'defamation'
p2593
I2633
sS'celebrityapprentice'
p2594
I2634
sS'decision'
p2595
I2635
sS'transactions'
p2596
I2636
sS'lied'
p2597
I2637
sS'per'
p2598
I2638
sS'bruce'
p2599
I2640
sS'innovation'
p2600
I2641
sS'dating'
p2601
I2642
sS'anna'
p2602
I2643
sS't'
p2603
I1675
sS'foley'
p2604
I2645
sS'be'
p2605
I2646
sS'macys'
p2606
I2647
sS'run'
p2607
I2648
sS'taxing'
p2608
I2649
sS'remembered'
p2609
I2650
sS'specialreport'
p2610
I2651
sS'palmer'
p2611
I2652
sS'continuing'
p2612
I2653
sS'use'
p2613
I2654
sS'refused'
p2614
I2655
sS'condolences'
p2615
I2392
sS'step'
p2616
I1022
sS'bp'
p2617
I2657
sS'hostages'
p2618
I2658
sS'bs'
p2619
I2659
sS'refuses'
p2620
I2660
sS'from'
p2621
I2906
sS'smithg'
p2622
I2662
sS'abroad'
p2623
I1051
sS'vaccine'
p2624
I2664
sS'handled'
p2625
I1590
sS'faith'
p2626
I2666
sS'pipeline'
p2627
I2667
sS'goods'
p2628
I2668
sS'usa'
p2629
I2907
sS'deserved'
p2630
I1068
sS'passover'
p2631
I2671
sS'noahgraycnn'
p2632
I1076
sS'tiffanyatrump'
p2633
I2673
sS'favor'
p2634
I3303
sS'deserves'
p2635
I1104
sS'italian'
p2636
I2902
sS'tenants'
p2637
I2676
sS'kimguilfoyle'
p2638
I1142
sS'ppl'
p2639
I123
sS'clubhouse'
p2640
I1158
sS'mst'
p2641
I1202
sS'clinton'
p2642
I2681
sS'colorado'
p2643
I2682
sS'garbage'
p2644
I2683
sS'terrorists'
p2645
I2684
sS'nsa'
p2646
I2686
sS'into'
p2647
I2687
sS'nydailynews'
p2648
I2688
sS'nonsense'
p2649
I2689
sS'handle'
p2650
I3252
sS'huffpostpol'
p2651
I3261
sS'makingadifference'
p2652
I2691
sS'joella'
p2653
I2692
sS'otcgiant'
p2654
I2693
sS'lesson'
p2655
I2694
sS'sports'
p2656
I2695
sS'bankruptcy'
p2657
I1250
sS'pundit'
p2658
I2697
sS'wintour'
p2659
I2698
sS'spending'
p2660
I2699
sS'question'
p2661
I2700
sS'submit'
p2662
I1289
sS'visas'
p2663
I1308
sS'heritage'
p2664
I2703
sS'forward'
p2665
I2704
sS'barackobama'
p2666
I2327
sS'record'
p2667
I3619
sS'blueprint'
p2668
I2706
sS'elsewhere'
p2669
I2707
sS'jewish'
p2670
I2708
sS'inept'
p2671
I2709
sS'immigration'
p2672
I2710
sS'newsmax'
p2673
I2711
sS'properly'
p2674
I2712
sS'reed'
p2675
I2713
sS'repeatedly'
p2676
I1373
sS'coldest'
p2677
I1321
sS'line'
p2678
I2716
sS'realdonaldtrump'
p2679
I1685
sS'active'
p2680
I2718
sS'raising'
p2681
I1437
sS'info'
p2682
I2720
sS'dcfoodsafety'
p2683
I2721
sS'tantrum'
p2684
I2722
sS'stumbling'
p2685
I2723
sS'up'
p2686
I2724
sS'us'
p2687
I2725
sS'ur'
p2688
I2726
sS'clips'
p2689
I2727
sS'today'
p2690
I2728
sS'uk'
p2691
I2729
sS'highlight'
p2692
I2730
sS'wicked'
p2693
I2731
sS'called'
p2694
I2733
sS'v'
p2695
I2734
sS'likewise'
p2696
I2735
sS'doesn'
p2697
I2736
sS'cure'
p2698
I1028
sS'home'
p2699
I3524
sS'rally'
p2700
I2739
sS'cpac'
p2701
I3494
sS'tsatsasepia'
p2702
I2740
sS'chechnyan'
p2703
I2742
sS'independents'
p2704
I2743
sS'petraeus'
p2705
I2744
sS'aipac'
p2706
I2745
sS'ballot'
p2707
I3526
sS'peace'
p2708
I1629
sS'towers'
p2709
I1379
sS'politicians'
p2710
I2749
sS'mixa'
p2711
I2750
sS'income'
p2712
I2751
sS'wasserman'
p2713
I2752
sS'mock'
p2714
I2753
sS'nice'
p2715
I2754
sS'dale'
p2716
I2755
sS'smiles'
p2717
I2756
sS'econ'
p2718
I2927
sS'generates'
p2719
I1692
sS'sided'
p2720
I2758
sS'enterprise'
p2721
I2759
sS'leno'
p2722
I1709
sS'resign'
p2723
I2761
sS'prepared'
p2724
I2762
sS'helping'
p2725
I2579
sS'evan'
p2726
I2764
sS'allowing'
p2727
I2765
sS'posters'
p2728
I2766
sS'krauthammer'
p2729
I2339
sS'iamgavinjames'
p2730
I2769
sS'ago'
p2731
I2770
sS'land'
p2732
I2771
sS'fighter'
p2733
I1774
sS'required'
p2734
I2773
sS'turbines'
p2735
I2774
sS'walked'
p2736
I2775
sS'fransisco'
p2737
I2776
sS'verdes'
p2738
I2777
sS'far'
p2739
I2778
sS'international'
p2740
I2380
sS'requires'
p2741
I2781
sS'having'
p2742
I2782
sS'once'
p2743
I2783
sS'watergate'
p2744
I2784
sS'code'
p2745
I1857
sS'ashamed'
p2746
I2932
sS'sales'
p2747
I3377
sS'series'
p2748
I2786
sS'results'
p2749
I2787
sS'existing'
p2750
I1682
sS'steve'
p2751
I2789
sS'farms'
p2752
I2790
sS'nunn'
p2753
I2791
sS'go'
p2754
I2792
sS'either'
p2755
I2644
sS'kate'
p2756
I1940
sS'issues'
p2757
I2794
sS'pervert'
p2758
I2785
sS'baseball'
p2759
I2795
sS'baron'
p2760
I2796
sS'chapo'
p2761
I2797
sS'peanut'
p2762
I2798
sS'concerned'
p2763
I2799
sS'mosque'
p2764
I2800
sS'young'
p2765
I2801
sS'send'
p2766
I1984
sS'maniac'
p2767
I2803
sS'successfuly'
p2768
I2804
sS'behalf'
p2769
I2805
sS'keystone'
p2770
I3536
sS'maryland'
p2771
I2807
sS'fatal'
p2772
I2015
sS'friendly'
p2773
I2809
sS'advisors'
p2774
I2810
sS'torture'
p2775
I2811
sS'bimbo'
p2776
I2812
sS'pdattolo'
p2777
I2065
sS'wave'
p2778
I2816
sS'wishes'
p2779
I2817
sS'facebook'
p2780
I2092
sS'telling'
p2781
I2820
sS'assad'
p2782
I2821
sS'korea'
p2783
I2822
sS'entire'
p2784
I2823
sS'redistribute'
p2785
I2824
sS'positions'
p2786
I2825
sS'shock'
p2787
I2826
sS'michael'
p2788
I2827
sS'ryan'
p2789
I2170
sS'elchucacabra'
p2790
I1400
sS'threat'
p2791
I2830
sS'race'
p2792
I2831
sS'congrats'
p2793
I3182
sS'polling'
p2794
I2832
sS'lysacek'
p2795
I971
sS'barbara'
p2796
I2834
sS'bernie'
p2797
I2835
sS'someday'
p2798
I2836
sS'toddriddolls'
p2799
I2837
sS'bleeding'
p2800
I2246
sS'carly'
p2801
I2839
sS'rivers'
p2802
I2840
sS'video'
p2803
I2841
sS'picked'
p2804
I2286
sS'zp'
p2805
I2303
sS'honors'
p2806
I2844
sS'depression'
p2807
I2845
sS'whitehouse'
p2808
I2846
sS'power'
p2809
I2847
sS'chicago'
p2810
I2848
sS'giving'
p2811
I2849
sS'rove'
p2812
I3192
sS'asap'
p2813
I2850
sS'az'
p2814
I2851
sS'both'
p2815
I3372
sS'access'
p2816
I2852
sS'waiting'
p2817
I2853
sS'turnaround'
p2818
I2854
sS'playa'
p2819
I2855
sS'capital'
p2820
I2856
sS'harassing'
p2821
I2857
sS'exercise'
p2822
I2858
sS'timcoopertweets'
p2823
I2859
sS'matthewladzik'
p2824
I2860
sS'voluntarily'
p2825
I2861
sS'stance'
p2826
I2569
sS'gretawire'
p2827
I2417
sS'pushing'
p2828
I2865
sS'commercial'
p2829
I2866
sS'delivering'
p2830
I2867
sS'radicals'
p2831
I2868
sS'sagethelaxbro'
p2832
I2869
sS'poverty'
p2833
I2057
sS'others'
p2834
I2871
sS'loser'
p2835
I3505
sS'extreme'
p2836
I2872
sS'ukraine'
p2837
I2873
sS'birther'
p2838
I2874
sS'great'
p2839
I2875
sS'talent'
p2840
I2876
sS'receive'
p2841
I2877
sS'across'
p2842
I1494
sS'larger'
p2843
I2878
sS'leaving'
p2844
I2880
sS'merger'
p2845
I2360
sS'agschneiderman'
p2846
I2882
sS'defeat'
p2847
I2884
sS'therealmarilu'
p2848
I2885
sS'makes'
p2849
I2886
sS'dateline'
p2850
I2887
sS'wig'
p2851
I2888
sS'control'
p2852
I2955
sS'named'
p2853
I2890
sS'apseloff'
p2854
I2891
sS'apple'
p2855
I2892
sS'spy'
p2856
I2148
sS'funkyfakir'
p2857
I1117
sS'presidents'
p2858
I2589
sS'sgt'
p2859
I2896
sS'private'
p2860
I2897
sS'weaker'
p2861
I2956
sS'privately'
p2862
I2898
sS'oval'
p2863
I2741
sS'apply'
p2864
I2630
sS'singing'
p2865
I2901
sS'standing'
p2866
I2903
sS'subsidizes'
p2867
I2904
sS'confidence'
p2868
I1735
sS'metaphor'
p2869
I2661
sS'certificate'
p2870
I2669
sS'remains'
p2871
I2908
sS'illegal'
p2872
I2909
sS'examined'
p2873
I3404
sS'next'
p2874
I2910
sS'procrastinate'
p2875
I2911
sS'few'
p2876
I2912
sS'victoryorbust'
p2877
I2913
sS'doubt'
p2878
I2914
sS'debbie'
p2879
I2915
sS'eagles'
p2880
I2916
sS'themselves'
p2881
I2917
sS'howardtv'
p2882
I2918
sS'dreams'
p2883
I2919
sS'babe'
p2884
I2922
sS'rich'
p2885
I2923
sS'started'
p2886
I2924
sS'becomes'
p2887
I2925
sS'rockhall'
p2888
I2926
sS'factor'
p2889
I2369
sS'impress'
p2890
I2928
sS'about'
p2891
I3555
sS'missile'
p2892
I2930
sS'dealings'
p2893
I2931
sS'talks'
p2894
I1860
sS'baby'
p2895
I2933
sS'further'
p2896
I1924
sS'erica'
p2897
I2935
sS'nypd'
p2898
I2936
sS'iii'
p2899
I2937
sS'women'
p2900
I2808
sS'announcing'
p2901
I2939
sS'f'
p2902
I2940
sS'this'
p2903
I2941
sS'challenge'
p2904
I2942
sS'pro'
p2905
I3601
sS'critic'
p2906
I2943
sS'recession'
p2907
I2944
sS'unreal'
p2908
I2945
sS'crossed'
p2909
I2946
sS'iontv'
p2910
I2947
sS'praise'
p2911
I2948
sS'of'
p2912
I2949
sS'meet'
p2913
I2950
sS'closing'
p2914
I2951
sS'potus'
p2915
I2952
sS'lisalampanelli'
p2916
I2953
sS'performed'
p2917
I2954
sS'point'
p2918
I2452
sS'timetogettough'
p2919
I1724
sS'council'
p2920
I2957
sS'process'
p2921
I2958
sS'tax'
p2922
I2959
sS'high'
p2923
I2960
sS'reserves'
p2924
I2961
sS'hilton'
p2925
I1121
sS'something'
p2926
I2963
sS'sought'
p2927
I2965
sS'recklessly'
p2928
I2966
sS'serial'
p2929
I2967
sS'foxgottrumped'
p2930
I3566
sS'arnie'
p2931
I2968
sS'native'
p2932
I2969
sS'autobiography'
p2933
I2970
sS'favorability'
p2934
I2971
sS'counting'
p2935
I1097
sS'democracy'
p2936
I2973
sS'destroying'
p2937
I2975
sS'candidacy'
p2938
I3611
sS'six'
p2939
I2976
sS'hampshire'
p2940
I2977
sS'motivating'
p2941
I2978
sS'brian'
p2942
I2979
sS'winners'
p2943
I2980
sS'durandsentinus'
p2944
I2981
sS'instead'
p2945
I2982
sS'comedy'
p2946
I2983
sS'establishment'
p2947
I1305
sS'greatly'
p2948
I2985
sS'psyched'
p2949
I2986
sS'watch'
p2950
I488
sS'waters'
p2951
I2988
sS'collection'
p2952
I2448
sS'bothered'
p2953
I2990
sS'ronald'
p2954
I2991
sS'independent'
p2955
I2992
sS'united'
p2956
I2972
sS'chrisinspfld'
p2957
I2994
sS'ties'
p2958
I2995
sS'hawk'
p2959
I2996
sS'winter'
p2960
I2997
sS'recinded'
p2961
I2998
sS'drop'
p2962
I3513
sS'noworries'
p2963
I2999
sS'theartofthedeal'
p2964
I3000
sS'emanuel'
p2965
I3001
sS'chief'
p2966
I3002
sS'courage'
p2967
I3003
sS'honestly'
p2968
I3004
sS'realizes'
p2969
I3005
sS'allow'
p2970
I1621
sS'healthcare'
p2971
I3007
sS'furious'
p2972
I3008
sS'jebbush'
p2973
I3009
sS'kenyamoore'
p2974
I3010
sS'preparing'
p2975
I3011
sS'beaumontanthony'
p2976
I3012
sS'africans'
p2977
I3013
sS'asiana'
p2978
I494
sS'disarm'
p2979
I3015
sS'own'
p2980
I3572
sS'stoppers'
p2981
I2802
sS'looks'
p2982
I3018
sS'warren'
p2983
I3019
sS'perfect'
p2984
I3020
sS'bridges'
p2985
I1080
sS'negotiated'
p2986
I3022
sS'll'
p2987
I3024
sS'tingmanusa'
p2988
I3574
sS'sunday'
p2989
I3025
sS'him'
p2990
I2383
sS'lv'
p2991
I3027
sS'blatant'
p2992
I3028
sS'choose'
p2993
I3029
sS'inspecting'
p2994
I3030
sS'instruments'
p2995
I3031
sS'covered'
p2996
I3032
sS'sarahpalinusa'
p2997
I2376
sS'crowds'
p2998
I3034
sS'recept'
p2999
I3035
sS'prosper'
p3000
I3036
sS'ruined'
p3001
I3037
sS'credible'
p3002
I2678
sS'pure'
p3003
I2974
sS'dan'
p3004
I3040
sS'practice'
p3005
I3041
sS'mention'
p3006
I3042
sS'legendary'
p3007
I3043
sS'front'
p3008
I3044
sS'rexhispaniae'
p3009
I1744
sS'day'
p3010
I3046
sS'presidential'
p3011
I3047
sS'strive'
p3012
I3048
sS'nidal'
p3013
I3049
sS'thrill'
p3014
I3050
sS'intelligent'
p3015
I2984
sS'university'
p3016
I3052
sS'nfl'
p3017
I3053
sS'identified'
p3018
I3054
sS'lifetime'
p3019
I3406
sS'merge'
p3020
I3055
sS'rockets'
p3021
I3056
sS'truth'
p3022
I3057
sS'crossing'
p3023
I3058
sS'youngsellz'
p3024
I3059
sS'undecideds'
p3025
I3627
sS'marioraez'
p3026
I3060
sS'experienced'
p3027
I3061
sS'baxter'
p3028
I3062
sS'lie'
p3029
I3063
sS'doing'
p3030
I3064
sS'met'
p3031
I1820
sS'gary'
p3032
I1873
sS'hlp'
p3033
I3067
sS'alejandro'
p3034
I3068
sS'books'
p3035
I3069
sS'sands'
p3036
I3070
sS'wade'
p3037
I1748
sS'our'
p3038
I3072
sS'margins'
p3039
I3073
sS'bay'
p3040
I3074
sS'sexual'
p3041
I3075
sS'govmikehuckabee'
p3042
I3076
sS'sandy'
p3043
I498
sS'out'
p3044
I3078
sS'josephschleider'
p3045
I3079
sS'dogart'
p3046
I3080
sS'nick'
p3047
I3081
sS'notnottildaswin'
p3048
I3082
sS'mcmahon'
p3049
I3083
sS'actor'
p3050
I3084
sS'defend'
p3051
I786
sS'rev'
p3052
I3086
sS'reboot'
p3053
I3087
sS'islamist'
p3054
I3088
sS'upset'
p3055
I3208
sS'fran'
p3056
I2987
sS'murph'
p3057
I3090
sS'induction'
p3058
I38
sS'incompetence'
p3059
I3092
sS'red'
p3060
I42
sS'disclose'
p3061
I48
sS'shut'
p3062
I3095
sS'frank'
p3063
I1215
sS'troops'
p3064
I1965
sS'delegates'
p3065
I683
sS'jeff'
p3066
I3472
sS'wdct'
p3067
I3099
sS'completely'
p3068
I3100
sS'hazard'
p3069
I2989
sS'teamspringsteen'
p3070
I2881
sS'van'
p3071
I3588
sS'sitting'
p3072
I3103
sS'andydostal'
p3073
I3104
sS'vincent'
p3074
I3105
sS'trumpvlog'
p3075
I145
sS'allies'
p3076
I3107
sS'g'
p3077
I3108
sS'spill'
p3078
I3109
sS'ruins'
p3079
I859
sS'could'
p3080
I3111
sS'florida'
p3081
I3112
sS'keep'
p3082
I182
sS'abuse'
p3083
I2993
sS'thecelidebiasio'
p3084
I3115
sS'hussein'
p3085
I3116
sS'secretary'
p3086
I3117
sS'south'
p3087
I3118
sS'finest'
p3088
I3119
sS'kellyandmichael'
p3089
I3120
sS'davidinspired'
p3090
I3121
sS'owned'
p3091
I3122
sS'hey'
p3092
I3123
sS'muhammad'
p3093
I3124
sS'owner'
p3094
I3125
sS'equity'
p3095
I3126
sS'precisely'
p3096
I3463
sS'sununu'
p3097
I3128
sS'destinations'
p3098
I3129
sS'long'
p3099
I2701
sS'sadly'
p3100
I327
sS'fair'
p3101
I518
sS'unknown'
p3102
I2181
sS'durable'
p3103
I3133
sS'nonwork'
p3104
I1095
sS'relations'
p3105
I3135
sS'their'
p3106
I3136
sS'attack'
p3107
I361
sS'sergeant'
p3108
I3138
sS'perfectly'
p3109
I385
sS'behaved'
p3110
I3140
sS'final'
p3111
I3141
sS'interests'
p3112
I2143
sS'marilu'
p3113
I3143
sS'whats'
p3114
I3144
sS'greta'
p3115
I3145
sS'reversed'
p3116
I3146
sS'nobody'
p3117
I3147
sS'karlrove'
p3118
I3148
sS'elite'
p3119
I3149
sS'haven'
p3120
I3150
sS'closet'
p3121
I3297
sS'loved'
p3122
I3151
sS'ben'
p3123
I3152
sS'warfare'
p3124
I3153
sS'minister'
p3125
I3154
sS'boring'
p3126
I3155
sS'realreagan'
p3127
I3156
sS'roberts'
p3128
I0
sS'loves'
p3129
I3159
sS'sr'
p3130
I3160
sS'serenawilliams'
p3131
I3161
sS'abolished'
p3132
I3162
sS'steep'
p3133
I3163
sS'bet'
p3134
I2389
sS'countries'
p3135
I3165
sS'false'
p3136
I583
sS'cohen'
p3137
I237
sS'macmiller'
p3138
I865
sS'tonight'
p3139
I3170
sS'blip'
p3140
I620
sS'unlikely'
p3141
I3172
sS'have'
p3142
I3173
sS'redsox'
p3143
I640
sS'need'
p3144
I3175
sS'st'
p3145
I3176
sS'border'
p3146
I3177
sS'raffasolaries'
p3147
I3178
sS'complete'
p3148
I3179
sS'screw'
p3149
I669
sS'afraid'
p3150
I3181
sS'dallas'
p3151
I2921
sS'able'
p3152
I3183
sS'mid'
p3153
I3184
sS'incentive'
p3154
I3185
sS'arm'
p3155
I3186
sS'instance'
p3156
I3187
sS'which'
p3157
I3188
sS'awew'
p3158
I3189
sS'bretmichaels'
p3159
I3190
sS'nytimes'
p3160
I765
sS'agenda'
p3161
I2732
sS'drone'
p3162
I3193
sS'frontman'
p3163
I934
sS'rearrange'
p3164
I3196
sS'sc'
p3165
I1149
sS'but'
p3166
I3604
sS'bkcolin'
p3167
I3198
sS'why'
p3168
I909
sS'police'
p3169
I3200
sS'cellphone'
p3170
I3201
sS'hypocrite'
p3171
I3202
sS'refreshing'
p3172
I3203
sS'surveyusa'
p3173
I3204
sS'sg'
p3174
I2326
sS'enthusiastic'
p3175
I3206
sS'tarmac'
p3176
I3207
sS'stronger'
p3177
I292
sS'thanksgiving'
p3178
I3209
sS'brought'
p3179
I3210
sS'face'
p3180
I3211
sS'looked'
p3181
I3212
sS'tinypurplefishs'
p3182
I3213
sS'scents'
p3183
I3214
sS'movie'
p3184
I3215
sS'trumpsoho'
p3185
I3216
sS'businessman'
p3186
I3217
sS'fact'
p3187
I3218
sS'selection'
p3188
I3219
sS'exclusive'
p3189
I3158
sS'wayneaschneider'
p3190
I2204
sS'charles'
p3191
I3223
sS'anyway'
p3192
I3224
sS'bring'
p3193
I3225
sS'planning'
p3194
I3226
sS'democrats'
p3195
I984
sS'soldiers'
p3196
I3228
sS'fear'
p3197
I3229
sS'longer'
p3198
I3230
sS'pleased'
p3199
I999
sS'decade'
p3200
I3232
sS'staff'
p3201
I3233
sS'trying'
p3202
I3234
sS'based'
p3203
I3235
sS'knowledge'
p3204
I3236
sS'earned'
p3205
I1021
sS'winner'
p3206
I3238
sS'should'
p3207
I3239
sS'entities'
p3208
I3240
sS'unable'
p3209
I3241
sS'candidates'
p3210
I1055
sS'inherited'
p3211
I3243
sS'fuel'
p3212
I3244
sS'marriage'
p3213
I3245
sS'communist'
p3214
I3246
sS'local'
p3215
I335
sS'trumpireland'
p3216
I3248
sS'achieve'
p3217
I131
sS'equilibrium'
p3218
I1079
sS'boris'
p3219
I1081
sS'move'
p3220
I3014
sS'repweiner'
p3221
I1096
sS'listened'
p3222
I1038
sS'means'
p3223
I1107
sS'crumbling'
p3224
I1110
sS'salivating'
p3225
I3256
sS'michigan'
p3226
I3257
sS'jonkarl'
p3227
I3258
sS'lucky'
p3228
I3259
sS'joint'
p3229
I3260
sS'sues'
p3230
I1150
sS'champions'
p3231
I1554
sS'probably'
p3232
I2423
sS'buyer'
p3233
I3264
sS'prayers'
p3234
I3283
sS'endless'
p3235
I3265
sS'benghazi'
p3236
I3142
sS'sounds'
p3237
I3266
sS'h'
p3238
I394
sS'married'
p3239
I1225
sS'rapper'
p3240
I3269
sS'taxes'
p3241
I3270
sS'tuned'
p3242
I1234
sS'extremists'
p3243
I3272
sS'stuff'
p3244
I3273
sS'qe'
p3245
I3274
sS'she'
p3246
I3275
sS'levin'
p3247
I2551
sS'including'
p3248
I3017
sS'cycles'
p3249
I3278
sS'exude'
p3250
I867
sS'supertuesday'
p3251
I3280
sS'view'
p3252
I3281
sS'europe'
p3253
I2428
sS'suing'
p3254
I1291
sS'warrior'
p3255
I2864
sS'catastrophic'
p3256
I3284
sS'subsidizing'
p3257
I1312
sS'vis'
p3258
I3286
sS'lazy'
p3259
I3287
sS'mechanicsburg'
p3260
I3288
sS'officials'
p3261
I1301
sS'washtimes'
p3262
I3290
sS'signed'
p3263
I3618
sS'desperate'
p3264
I1344
sS'confrontational'
p3265
I1351
sS'packed'
p3266
I3293
sS'dlustv'
p3267
I3294
sS'lucasdowns'
p3268
I3296
sS'insanity'
p3269
I1390
sS'cheaters'
p3270
I2134
sS'nuclear'
p3271
I3299
sS'nightmare'
p3272
I3300
sS'laureate'
p3273
I3301
sS'superb'
p3274
I3302
sS'genius'
p3275
I2814
sS'state'
p3276
I3304
sS'taunting'
p3277
I3305
sS'closed'
p3278
I3306
sS'routine'
p3279
I1448
sS'ebola'
p3280
I1452
sS'progress'
p3281
I1455
sS'neither'
p3282
I3310
sS'sold'
p3283
I2433
sS'boogiefinger'
p3284
I3312
sS'bought'
p3285
I1467
sS'ends'
p3286
I3314
sS'ability'
p3287
I3315
sS'superior'
p3288
I2302
sS'deliver'
p3289
I3317
sS'embarrassment'
p3290
I1513
sS'job'
p3291
I3319
sS'takeover'
p3292
I3320
sS'joe'
p3293
I3321
sS'key'
p3294
I3322
sS'charity'
p3295
I2938
sS'approval'
p3296
I1530
sS'maga'
p3297
I3324
sS'boss'
p3298
I3325
sS'lawsuit'
p3299
I3326
sS'jcalcat'
p3300
I3327
sS'david'
p3301
I3328
sS'<end>'
p3302
I1547
sS'piece'
p3303
I3623
sS'career'
p3304
I1564
sS'joke'
p3305
I3331
sS'taking'
p3306
I3332
sS'deficits'
p3307
I3333
sS'drug'
p3308
I3334
sS'richards'
p3309
I3365
sS'etc'
p3310
I1591
sS'succeed'
p3311
I2436
sS'trumps'
p3312
I3337
sS'attributes'
p3313
I3338
sS'melaniatrump'
p3314
I3339
sS'sharylattkisson'
p3315
I3340
sS'lisalee'
p3316
I3341
sS'wear'
p3317
I3342
sS'bostonherald'
p3318
I3343
sS'isnt'
p3319
I3292
sS'diplomats'
p3320
I3344
sS'impersonator'
p3321
I3345
sS'wall'
p3322
I3346
sS'tuesday'
p3323
I3347
sS'<beg>'
p3324
I3348
sS'walk'
p3325
I3349
sS'downgrade'
p3326
I3350
sS'carbon'
p3327
I3351
sS'jimmy'
p3328
I2680
sS'respect'
p3329
I3352
sS'winning'
p3330
I3026
sS'nomination'
p3331
I3132
sS'flourishing'
p3332
I3354
sS'horrific'
p3333
I3629
sS'attraction'
p3334
I3356
sS'addition'
p3335
I1726
sS'copies'
p3336
I3358
sS'shame'
p3337
I302
sS'andersoncooper'
p3338
I553
sS'permanent'
p3339
I3361
sS'hdfxdx'
p3340
I3362
sS'treat'
p3341
I3363
sS'gaza'
p3342
I3364
sS'poet'
p3343
I1771
sS'waste'
p3344
I3366
sS'define'
p3345
I3367
sS'username'
p3346
I3368
sS'mike'
p3347
I3369
sS'controlled'
p3348
I3370
sS'finishes'
p3349
I3371
sS'league'
p3350
I2439
sS'spock'
p3351
I2407
sS'moved'
p3352
I3373
sS'vince'
p3353
I3374
sS'releasing'
p3354
I3375
sS'climate'
p3355
I3376
sS'al'
p3356
I2685
sS'ridden'
p3357
I3378
sS'tweets'
p3358
I3379
sS'finished'
p3359
I3380
sS'justin'
p3360
I3558
sS'chess'
p3361
I3381
sS'fellow'
p3362
I3382
sS'apprenticenbc'
p3363
I3383
sS'multi'
p3364
I3384
sS'holiday'
p3365
I3033
sS'abandoned'
p3366
I3386
sS'ap'
p3367
I1802
sS'dodge'
p3368
I3251
sS'nd'
p3369
I1632
sS'appearance'
p3370
I3388
sS'value'
p3371
I3389
sS'ladyoffe'
p3372
I1928
sS'entrepreneurial'
p3373
I3391
sS'sweepstweet'
p3374
I2920
sS'promoted'
p3375
I1951
sS'romneycare'
p3376
I3394
sS'at'
p3377
I1804
sS'va'
p3378
I3395
sS'ncaa'
p3379
I3396
sS've'
p3380
I3397
sS'resident'
p3381
I1987
sS'madrina'
p3382
I3399
sS'refs'
p3383
I3400
sS'site'
p3384
I3401
sS'helped'
p3385
I2013
sS'saggaswagga'
p3386
I3403
sS'vs'
p3387
I1870
sS'dems'
p3388
I3405
sS'lightweight'
p3389
I2035
sS'arabia'
p3390
I2039
sS'crash'
p3391
I3038
sS'greater'
p3392
I3039
sS'cp'
p3393
I3353
sS'terrorist'
p3394
I1243
sS'let'
p3395
I2870
sS'perhaps'
p3396
I3410
sS'administration'
p3397
I3411
sS'cross'
p3398
I3412
sS'gruber'
p3399
I3413
sS'chants'
p3400
I3414
sS'unity'
p3401
I3415
sS'strange'
p3402
I3416
sS'speaker'
p3403
I3417
sS'smarter'
p3404
I1962
sS'outbreak'
p3405
I533
sS'terrorism'
p3406
I3420
sS'michaelphelps'
p3407
I3422
sS'trumptower'
p3408
I3423
sS'injured'
p3409
I3424
sS'featuring'
p3410
I1777
sS'joehos'
p3411
I3426
sS'premiere'
p3412
I3427
sS'bale'
p3413
I3428
sS'conceived'
p3414
I2190
sS'upon'
p3415
I3430
sS'compared'
p3416
I3641
sS'student'
p3417
I3432
sS'fierce'
p3418
I3433
sS'build'
p3419
I3434
sS'giuliani'
p3420
I2233
sS'impeccable'
p3421
I3436
sS'judgment'
p3422
I3437
sS'collar'
p3423
I3438
sS'warming'
p3424
I3439
sS'off'
p3425
I3440
sS'center'
p3426
I3441
sS'i'
p3427
I3442
sS'whole'
p3428
I3443
sS'builder'
p3429
I3444
sS'indonesia'
p3430
I808
sS'seth'
p3431
I2289
sS'pertains'
p3432
I3279
sS'fighting'
p3433
I3447
sS'asked'
p3434
I3448
sS'thought'
p3435
I3449
sS'failures'
p3436
I2779
sS'trials'
p3437
I3643
sS'position'
p3438
I3452
sS'fail'
p3439
I3171
sS'knight'
p3440
I3453
sS'latest'
p3441
I3454
sS'lynching'
p3442
I3455
sS'kiss'
p3443
I3456
sS'rocket'
p3444
I3457
sS'discord'
p3445
I787
sS'increasingly'
p3446
I797
sS'percent'
p3447
I3644
sS'executive'
p3448
I484
sS'mistakes'
p3449
I3462
sS'protecting'
p3450
I3464
sS'paul'
p3451
I2342
sS'rubber'
p3452
I3466
sS'republican'
p3453
I3045
sS'ads'
p3454
I3468
sS'field'
p3455
I1815
sS'residential'
p3456
I3470
sS'gma'
p3457
I3471
sS'deprived'
p3458
I402
sS'demographic'
p3459
I3473
sS'knew'
p3460
I3474
sS'hall'
p3461
I500
sS'reasons'
p3462
I2453
sS'forbes'
p3463
I2476
sS'nato'
p3464
I3478
sS'gust'
p3465
I3267
sS'reason'
p3466
I2199
sS'duscussing'
p3467
I3480
sS'kick'
p3468
I1998
sS'boom'
p3469
I3648
sS'identical'
p3470
I3482
sS'tests'
p3471
I3483
sS'jimlibertarian'
p3472
I2530
sS'myth'
p3473
I3485
sS'government'
p3474
I3486
sS'maryhodgins'
p3475
I3487
sS'protesters'
p3476
I3488
sS'newsstand'
p3477
I1475
sS'historic'
p3478
I3490
sS'five'
p3479
I3491
sS'missuniverse'
p3480
I2879
sS'press'
p3481
I3493
sS'immediately'
p3482
I965
sS'fools'
p3483
I3495
sS'loss'
p3484
I3496
sS'dubai'
p3485
I3497
sS'like'
p3486
I3498
sS'success'
p3487
I666
sS'warrencasselljr'
p3488
I3500
sS'miami'
p3489
I660
sS'makingthecase'
p3490
I3502
sS'bigd'
p3491
I3503
sS'bigotry'
p3492
I3504
sS'clown'
p3493
I2629
sS'james'
p3494
I2533
sS'become'
p3495
I3507
sS'works'
p3496
I3508
sS'refugees'
p3497
I3509
sS'page'
p3498
I3510
sS'wonders'
p3499
I2675
sS'amendment'
p3500
I3512
sS'because'
p3501
I2690
sS'emilymiller'
p3502
I3514
sS'amadorserver'
p3503
I3515
sS'foreseeable'
p3504
I3516
sS'twitter'
p3505
I3517
sS'authority'
p3506
I3518
sS'artificial'
p3507
I3519
sS'imwithyou'
p3508
I3520
sS'growth'
p3509
I3521
sS'cleveland'
p3510
I3522
sS'proper'
p3511
I3523
sS'enviro'
p3512
I2738
sS'empire'
p3513
I3525
sS'employment'
p3514
I2746
sS'happens'
p3515
I3527
sS'est'
p3516
I3528
sS'competitor'
p3517
I3529
sS'obsessed'
p3518
I3530
sS'lead'
p3519
I3531
sS'demonstrates'
p3520
I3532
sS'avoid'
p3521
I3533
sS'hurricane'
p3522
I3534
sS'does'
p3523
I3535
sS'passion'
p3524
I2806
sS'bosses'
p3525
I3537
sS'pjonchym'
p3526
I3538
sS'chains'
p3527
I3540
sS'leader'
p3528
I3541
sS'inaccurate'
p3529
I3542
sS'schedule'
p3530
I2815
sS'mitt'
p3531
I3544
sS'chokes'
p3532
I3545
sS'paper'
p3533
I2103
sS'wesley'
p3534
I3546
sS'host'
p3535
I3547
sS'immature'
p3536
I155
sS'carnegie'
p3537
I3548
sS'although'
p3538
I3549
sS'bergdahl'
p3539
I3550
sS'reallltalk'
p3540
I3110
sS'imaginary'
p3541
I3551
sS'revolution'
p3542
I3553
sS'gained'
p3543
I3554
sS'sister'
p3544
I2929
sS'mkbeattie'
p3545
I3556
sS'actual'
p3546
I3557
sS'puts'
p3547
I3295
sS'extension'
p3548
I3559
sS'getting'
p3549
I3560
sS'column'
p3550
I3561
sS'universe'
p3551
I1320
sS'adamsteinbaugh'
p3552
I3563
sS'reilly'
p3553
I3564
sS'headed'
p3554
I3565
sS'hot'
p3555
I2883
sS'pz'
p3556
I2467
sS'important'
p3557
I3568
sS'saddens'
p3558
I3569
sS'documentary'
p3559
I3570
sS'executives'
p3560
I3571
sS'jayleno'
p3561
I2469
sS'polished'
p3562
I3573
sS'keeps'
p3563
I1387
sS'previously'
p3564
I3575
sS'dud'
p3565
I3576
sS'brotherhood'
p3566
I3577
sS'washington'
p3567
I3578
sS'billions'
p3568
I3579
sS'chris'
p3569
I3580
sS'playoff'
p3570
I3581
sS'weather'
p3571
I3582
sS'promise'
p3572
I2819
sS'negate'
p3573
I3584
sS'forget'
p3574
I1849
sS'fired'
p3575
I3585
sS'convicted'
p3576
I3586
sS'wack'
p3577
I3098
sS'yorkers'
p3578
I3102
sS'impatience'
p3579
I3589
sS'housing'
p3580
I3590
sS'peters'
p3581
I3127
sS'lost'
p3582
I3499
sS'wwehof'
p3583
I3593
sS'biggest'
p3584
I3594
sS'damn'
p3585
I3595
sS'globe'
p3586
I3065
sS'howardstern'
p3587
I3596
sS'tarekr'
p3588
I3461
sS'building'
p3589
I3597
sS'washingtonpost'
p3590
I3598
sS'buy'
p3591
I3599
sS'north'
p3592
I3600
sS'frisk'
p3593
I2619
sS'brand'
p3594
I3602
sS'commands'
p3595
I3603
sS'shines'
p3596
I2385
sS'sollecito'
p3597
I3605
sS'privilege'
p3598
I3606
sS'hi'
p3599
I3607
sS'goals'
p3600
I3609
sS'licknenahan'
p3601
I3610
sS'highest'
p3602
I1696
sS'viewers'
p3603
I2142
sS'he'
p3604
I3612
sS'unfollow'
p3605
I703
sS'made'
p3606
I3613
sS'wise'
p3607
I3614
sS'whether'
p3608
I3615
sS'dangerous'
p3609
I1548
sS'j'
p3610
I3617
sS'politics'
p3611
I3157
sS'truthful'
p3612
I3168
sS'te'
p3613
I1879
sS'stories'
p3614
I2029
sS'pumped'
p3615
I3621
sS'problem'
p3616
I3622
sS'nugent'
p3617
I3016
sS'minutes'
p3618
I3624
sS'odds'
p3619
I3625
sS'apologize'
p3620
I3359
sS'supreme'
p3621
I3626
sS'rightly'
p3622
I3023
sS'begun'
p3623
I3628
sS'barbarajwalters'
p3624
I3355
sS'int'
p3625
I3630
sS'universal'
p3626
I3631
sS'measure'
p3627
I3071
sS'romney'
p3628
I3632
sS'beats'
p3629
I3633
sS'goodness'
p3630
I3634
sS'unwatchable'
p3631
I3635
sS'education'
p3632
I3409
sS'eric'
p3633
I3501
sS'islesrbyanksfan'
p3634
I3638
sS'walters'
p3635
I3421
sS'diplomat'
p3636
I3640
sS'myrtle'
p3637
I3431
sS'contest'
p3638
I2294
sS'corporation'
p3639
I3451
sS'boot'
p3640
I3460
sS'detail'
p3641
I3645
sS'trumptoday'
p3642
I3646
sS'book'
p3643
I3477
sS'special'
p3644
I3077
sS'kingdommag'
p3645
I1773
sS'granite'
p3646
I3650
sS'scandal'
p3647
I2900
sS'reckless'
p3648
I3651
sS'adam'
p3649
I2213
sS'mets'
p3650
I3653
sS'jonahnro'
p3651
I3654
sS'illegally'
p3652
I3655
sS'francisco'
p3653
I26
sS'star'
p3654
I3657
sS'monday'
p3655
I3658
sS'davyshanks'
p3656
I3659
sS'class'
p3657
I3199
sS'embracing'
p3658
I3660
sS'june'
p3659
I3661
sS'stay'
p3660
I3662
sS'margaret'
p3661
I3663
sS'chance'
p3662
I3664
sS'stab'
p3663
I3665
sS'ceos'
p3664
I3666
sS'tailgate'
p3665
I3667
sS'repeal'
p3666
I3668
sS'friends'
p3667
I3669
sS'christians'
p3668
I3670
sS'cliff'
p3669
I3671
sS'coat'
p3670
I2083
sS'using'
p3671
I2572
sS'starting'
p3672
I3672
sS'rule'
p3673
I3673
sS'hikes'
p3674
I3674
sS'write'
p3675
I3021
sS'lives'
p3676
I3675
sS'stevemtalk'
p3677
I3085
s.