(dp0
S'trenton'
p1
I0
sS'msgs'
p2
I1
sS'all'
p3
I1287
sS'four'
p4
I3
sS'controversial'
p5
I4
sS'hanging'
p6
I5
sS'oldest'
p7
I6
sS'saved'
p8
I7
sS'romneysbinders'
p9
I8
sS'consider'
p10
I1288
sS'whose'
p11
I69
sS'voter'
p12
I11
sS'electricity'
p13
I12
sS'tweet'
p14
I13
sS'presents'
p15
I14
sS'voted'
p16
I15
sS'under'
p17
I16
sS'slowest'
p18
I17
sS'pride'
p19
I18
sS'onstage'
p20
I19
sS'worth'
p21
I20
sS'supreme'
p22
I2468
sS'legislators'
p23
I21
sS'rescue'
p24
I22
sS'compassion'
p25
I23
sS'void'
p26
I24
sS'rise'
p27
I25
sS'every'
p28
I26
sS'updates'
p29
I27
sS'reforms'
p30
I28
sS'politician'
p31
I1727
sS'bringing'
p32
I30
sS'vast'
p33
I31
sS'tickets'
p34
I32
sS'school'
p35
I33
sS'skills'
p36
I34
sS'pinch'
p37
I35
sS'companies'
p38
I36
sS'solution'
p39
I37
sS'mlkday'
p40
I38
sS'joke'
p41
I2262
sS'math'
p42
I1075
sS'heading'
p43
I254
sS'methane'
p44
I258
sS'enjoy'
p45
I42
sS'charter'
p46
I43
sS'leaders'
p47
I44
sS'guidelines'
p48
I276
sS'direct'
p49
I46
sS'budget'
p50
I1733
sS'across'
p51
I48
sS'likely'
p52
I49
sS'street'
p53
I50
sS'n'
p54
I51
sS'shining'
p55
I52
sS'even'
p56
I53
sS'deferred'
p57
I1735
sS'solemn'
p58
I55
sS'decisions'
p59
I1298
sS'commemorating'
p60
I57
sS'weren'
p61
I58
sS'liberty'
p62
I59
sS'above'
p63
I62
sS'beater'
p64
I63
sS'new'
p65
I64
sS'ever'
p66
I65
sS'discrimination'
p67
I2280
sS'memorialday'
p68
I66
sS'hero'
p69
I67
sS'zach'
p70
I68
sS'men'
p71
I70
sS'here'
p72
I71
sS'hundreds'
p73
I72
sS'met'
p74
I73
sS'china'
p75
I74
sS'active'
p76
I75
sS'path'
p77
I76
sS'kids'
p78
I77
sS'daughter'
p79
I78
sS'forum'
p80
I79
sS'flooding'
p81
I80
sS'study'
p82
I81
sS'economics'
p83
I82
sS'ignoring'
p84
I83
sS'credit'
p85
I84
sS'military'
p86
I85
sS'changes'
p87
I86
sS'punishment'
p88
I87
sS'golden'
p89
I88
sS'secure'
p90
I89
sS'campaign'
p91
I90
sS'mobility'
p92
I91
sS'fireworks'
p93
I92
sS'reagan'
p94
I93
sS'brought'
p95
I94
sS'doyourjob'
p96
I95
sS'ninety'
p97
I530
sS'moral'
p98
I97
sS'thursday'
p99
I1304
sS'txt'
p100
I99
sS'spoke'
p101
I100
sS'would'
p102
I101
sS'army'
p103
I102
sS'hospital'
p104
I103
sS'century'
p105
I1742
sS'call'
p106
I105
sS'tell'
p107
I106
sS'supporters'
p108
I107
sS'successful'
p109
I108
sS'benefiting'
p110
I109
sS'wars'
p111
I110
sS'adult'
p112
I111
sS'smile'
p113
I1564
sS'hold'
p114
I113
sS'striving'
p115
I114
sS'blocking'
p116
I115
sS'must'
p117
I116
sS'me'
p118
I117
sS'ma'
p119
I693
sS'room'
p120
I119
sS'rights'
p121
I120
sS'pursue'
p122
I121
sS'work'
p123
I122
sS'refusing'
p124
I123
sS'roof'
p125
I124
sS'temperatures'
p126
I125
sS'my'
p127
I126
sS'example'
p128
I127
sS'give'
p129
I128
sS'unjust'
p130
I129
sS'woman'
p131
I1313
sS'reviewing'
p132
I130
sS'want'
p133
I131
sS'counseling'
p134
I132
sS'organizer'
p135
I133
sS'times'
p136
I2125
sS'attract'
p137
I135
sS'guarantee'
p138
I136
sS'end'
p139
I137
sS'recovery'
p140
I138
sS'turn'
p141
I139
sS'provide'
p142
I140
sS'travel'
p143
I141
sS'damage'
p144
I142
sS'machine'
p145
I143
sS'how'
p146
I144
sS'amazing'
p147
I145
sS'writers'
p148
I146
sS'ordinary'
p149
I147
sS'charging'
p150
I148
sS'offshore'
p151
I149
sS'pizza'
p152
I150
sS'beauty'
p153
I151
sS'transforming'
p154
I152
sS'after'
p155
I153
sS'wrong'
p156
I154
sS'lay'
p157
I155
sS'president'
p158
I156
sS'law'
p159
I157
sS'effective'
p160
I158
sS'wins'
p161
I159
sS'homeowners'
p162
I160
sS'appreciate'
p163
I161
sS'lost'
p164
I2377
sS'childhood'
p165
I914
sS'green'
p166
I163
sS'enter'
p167
I164
sS'uninsured'
p168
I165
sS'preventive'
p169
I166
sS'wing'
p170
I167
sS'senators'
p171
I168
sS'office'
p172
I170
sS'deck'
p173
I171
sS'over'
p174
I172
sS'rewarded'
p175
I173
sS'before'
p176
I174
sS'fads'
p177
I175
sS'fit'
p178
I176
sS'lifeline'
p179
I177
sS'polluters'
p180
I178
sS'fix'
p181
I179
sS'saddleback'
p182
I180
sS'writing'
p183
I181
sS'better'
p184
I182
sS'stalemate'
p185
I183
sS'weeks'
p186
I184
sS'easier'
p187
I185
sS'overcome'
p188
I186
sS'then'
p189
I187
sS'them'
p190
I188
sS'smallbusinesssaturday'
p191
I2131
sS'iowa'
p192
I189
sS'prevented'
p193
I190
sS'unemployed'
p194
I191
sS'safe'
p195
I192
sS'break'
p196
I194
sS'moines'
p197
I1327
sS'they'
p198
I196
sS'one'
p199
I920
sS'humanity'
p200
I513
sS'bank'
p201
I198
sS'shadows'
p202
I199
sS'explode'
p203
I200
sS'stimulus'
p204
I201
sS'victory'
p205
I202
sS'reasonable'
p206
I203
sS'farenthold'
p207
I204
sS'meal'
p208
I205
sS'mean'
p209
I206
sS'consolidate'
p210
I207
sS'sciencesaysso'
p211
I208
sS'financial'
p212
I209
sS'concord'
p213
I210
sS'series'
p214
I211
sS'mandates'
p215
I212
sS'celebrating'
p216
I214
sS'trading'
p217
I215
sS'hosted'
p218
I216
sS'navy'
p219
I217
sS'aids'
p220
I218
sS'saturday'
p221
I219
sS'rt'
p222
I220
sS'large'
p223
I1332
sS'driving'
p224
I222
sS'oprah'
p225
I223
sS'god'
p226
I224
sS'cameras'
p227
I225
sS'crucial'
p228
I226
sS'george'
p229
I227
sS'rd'
p230
I228
sS're'
p231
I229
sS'laid'
p232
I230
sS'banning'
p233
I231
sS'got'
p234
I232
sS'gov'
p235
I233
sS'gop'
p236
I234
sS'independence'
p237
I235
sS'arizona'
p238
I236
sS'turning'
p239
I237
sS'given'
p240
I932
sS'free'
p241
I239
sS'standard'
p242
I240
sS'campaigns'
p243
I241
sS'appointments'
p244
I242
sS'immigrationreform'
p245
I243
sS'boosting'
p246
I244
sS'checked'
p247
I245
sS'wanted'
p248
I246
sS'knit'
p249
I247
sS'certified'
p250
I248
sS'created'
p251
I249
sS'starts'
p252
I250
sS'privacy'
p253
I2137
sS'days'
p254
I252
sS'priorities'
p255
I253
sS'local'
p256
I2205
sS'renew'
p257
I255
sS'isn'
p258
I256
sS'arrived'
p259
I257
sS'organize'
p260
I1244
sS'economists'
p261
I260
sS'encouraging'
p262
I261
sS'hearing'
p263
I262
sS'another'
p264
I263
sS'olds'
p265
I264
sS'service'
p266
I265
sS'top'
p267
I266
sS'recruiting'
p268
I267
sS'carry'
p269
I268
sS'needed'
p270
I269
sS'rates'
p271
I270
sS'too'
p272
I271
sS'livelihoods'
p273
I272
sS'purposefully'
p274
I273
sS'john'
p275
I274
sS'filibuster'
p276
I275
sS'grandchildren'
p277
I277
sS'janellemonae'
p278
I278
sS'serve'
p279
I279
sS'took'
p280
I280
sS'deval'
p281
I281
sS'positively'
p282
I282
sS'last'
p283
I2294
sS'showed'
p284
I283
sS'nominate'
p285
I284
sS'immigrants'
p286
I285
sS'second'
p287
I286
sS'binds'
p288
I287
sS'friend'
p289
I940
sS'historical'
p290
I289
sS'feeling'
p291
I290
sS'boston'
p292
I291
sS'mind'
p293
I292
sS'talking'
p294
I293
sS'childcare'
p295
I294
sS'seen'
p296
I295
sS'botswana'
p297
I296
sS'strength'
p298
I297
sS'genuine'
p299
I298
sS'convenient'
p300
I299
sS'responsible'
p301
I300
sS'recommended'
p302
I301
sS'luxury'
p303
I302
sS'doors'
p304
I303
sS'greatest'
p305
I304
sS'takeittothehouse'
p306
I305
sS'citizens'
p307
I306
sS'bruce'
p308
I307
sS'simplify'
p309
I308
sS'mouth'
p310
I309
sS'letter'
p311
I310
sS'claims'
p312
I311
sS'retaining'
p313
I312
sS'inexcusable'
p314
I313
sS'don'
p315
I314
sS'consumers'
p316
I1348
sS'devastating'
p317
I316
sS'm'
p318
I317
sS'dog'
p319
I318
sS'investments'
p320
I319
sS'bracket'
p321
I1896
sS'sources'
p322
I2351
sS'principle'
p323
I321
sS'voting'
p324
I322
sS'consumer'
p325
I323
sS'constance'
p326
I324
sS'came'
p327
I325
sS'saying'
p328
I326
sS'inspire'
p329
I327
sS'retire'
p330
I328
sS'ending'
p331
I329
sS'attempts'
p332
I330
sS'earth'
p333
I331
sS'whitehouse'
p334
I332
sS'thirds'
p335
I333
sS'judges'
p336
I334
sS'dampening'
p337
I335
sS'dosomething'
p338
I336
sS'bush'
p339
I337
sS'deepest'
p340
I338
sS'rich'
p341
I339
sS'folks'
p342
I340
sS'announce'
p343
I341
sS'warmest'
p344
I342
sS'do'
p345
I344
sS'watch'
p346
I345
sS'dc'
p347
I346
sS'coast'
p348
I347
sS'pocket'
p349
I348
sS'spirit'
p350
I349
sS'despite'
p351
I350
sS'report'
p352
I351
sS'haiti'
p353
I352
sS'dr'
p354
I353
sS'proposes'
p355
I354
sS'abetterbargain'
p356
I356
sS'bad'
p357
I357
sS'openly'
p358
I1776
sS'ban'
p359
I359
sS'told'
p360
I360
sS'secretary'
p361
I361
sS'respond'
p362
I362
sS'disaster'
p363
I363
sS'fair'
p364
I364
sS'testing'
p365
I365
sS'voxdotcom'
p366
I366
sS'depends'
p367
I367
sS'decided'
p368
I368
sS'result'
p369
I369
sS'best'
p370
I370
sS'pete'
p371
I371
sS'said'
p372
I372
sS'narrated'
p373
I373
sS'away'
p374
I374
sS'continually'
p375
I375
sS'future'
p376
I950
sS'preserve'
p377
I379
sS'we'
p378
I380
sS'never'
p379
I381
sS'terms'
p380
I382
sS'wears'
p381
I383
sS'nationwide'
p382
I384
sS'personalize'
p383
I385
sS'wi'
p384
I386
sS'wh'
p385
I387
sS'ramps'
p386
I388
sS'news'
p387
I389
sS'debt'
p388
I390
sS'wy'
p389
I391
sS'improve'
p390
I392
sS'protect'
p391
I393
sS'lgbt'
p392
I394
sS'country'
p393
I395
sS'uncertainty'
p394
I396
sS'heating'
p395
I2308
sS'against'
p396
I398
sS'players'
p397
I399
sS'chatimah'
p398
I400
sS'games'
p399
I401
sS'planned'
p400
I402
sS'asked'
p401
I403
sS'and'
p402
I954
sS'tough'
p403
I405
sS'itsonus'
p404
I406
sS'had'
p405
I407
sS'hardworking'
p406
I408
sS'epidemic'
p407
I409
sS'loaded'
p408
I410
sS'trust'
p409
I411
sS'speak'
p410
I412
sS'conference'
p411
I413
sS'strong'
p412
I1369
sS'mobilization'
p413
I415
sS'union'
p414
I416
sS'buffett'
p415
I417
sS'three'
p416
I418
sS'been'
p417
I419
sS'quickly'
p418
I420
sS'much'
p419
I421
sS'livethewage'
p420
I422
sS'interest'
p421
I423
sS'basic'
p422
I424
sS'privilege'
p423
I425
sS'entered'
p424
I426
sS'life'
p425
I427
sS'families'
p426
I428
sS'drugs'
p427
I429
sS'republicans'
p428
I430
sS'worker'
p429
I431
sS'lift'
p430
I432
sS'child'
p431
I433
sS'catch'
p432
I434
sS'chili'
p433
I377
sS'applied'
p434
I436
sS'has'
p435
I437
sS'ahead'
p436
I1373
sS'economies'
p437
I439
sS'air'
p438
I440
sS'near'
p439
I441
sS'ain'
p440
I442
sS'teachers'
p441
I443
sS'aid'
p442
I444
sS'voice'
p443
I445
sS'davenport'
p444
I446
sS'launched'
p445
I447
sS'seven'
p446
I448
sS'thedemocrats'
p447
I96
sS'mexico'
p448
I450
sS'is'
p449
I1017
sS'it'
p450
I452
sS'il'
p451
I453
sS'in'
p452
I454
sS'ia'
p453
I455
sS'campaigning'
p454
I456
sS'controversy'
p455
I457
sS'specter'
p456
I458
sS'trusted'
p457
I459
sS'if'
p458
I460
sS'memorial'
p459
I461
sS'things'
p460
I462
sS'make'
p461
I463
sS'amman'
p462
I464
sS'sidelines'
p463
I465
sS'grows'
p464
I466
sS'fairly'
p465
I467
sS'commonsense'
p466
I468
sS'social'
p467
I1378
sS'workforce'
p468
I470
sS'lyndon'
p469
I471
sS'greeted'
p470
I472
sS'marched'
p471
I473
sS'groundbreaking'
p472
I474
sS'opportunity'
p473
I476
sS'tune'
p474
I477
sS'kid'
p475
I478
sS'vermont'
p476
I479
sS'kept'
p477
I480
sS'programs'
p478
I481
sS'failing'
p479
I482
sS'game'
p480
I1801
sS'academic'
p481
I484
sS'dallasmemorial'
p482
I485
sS'mother'
p483
I486
sS'dadt'
p484
I487
sS'the'
p485
I488
sS'corporate'
p486
I489
sS'yours'
p487
I490
sS'left'
p488
I491
sS'seasonal'
p489
I492
sS'spurred'
p490
I493
sS'capitol'
p491
I494
sS'just'
p492
I495
sS'unemployment'
p493
I496
sS'photo'
p494
I497
sS'sporting'
p495
I498
sS'aside'
p496
I968
sS'kinko'
p497
I500
sS'thanks'
p498
I501
sS'facts'
p499
I502
sS'yet'
p500
I503
sS'candidate'
p501
I504
sS'photographer'
p502
I505
sS'josh'
p503
I506
sS'spread'
p504
I507
sS'brainstorming'
p505
I508
sS'easy'
p506
I509
sS'prison'
p507
I510
sS'save'
p508
I511
sS'hat'
p509
I512
sS'jaylenotonight'
p510
I845
sS'gave'
p511
I514
sS'maya'
p512
I516
sS'breaks'
p513
I517
sS'possible'
p514
I518
sS'possibly'
p515
I519
sS'birth'
p516
I193
sS'judge'
p517
I521
sS'shadow'
p518
I522
sS'poses'
p519
I523
sS'dignity'
p520
I525
sS'orlando'
p521
I526
sS'arrivals'
p522
I527
sS'specific'
p523
I528
sS'remind'
p524
I529
sS'steps'
p525
I531
sS'night'
p526
I532
sS'security'
p527
I533
sS'matchup'
p528
I534
sS'attorney'
p529
I536
sS'right'
p530
I537
sS'honored'
p531
I538
sS'crowd'
p532
I539
sS'people'
p533
I540
sS'cybersecurity'
p534
I541
sS'intern'
p535
I542
sS'election'
p536
I543
sS'nytimes'
p537
I2173
sS'total'
p538
I545
sS'combat'
p539
I2174
sS'for'
p540
I547
sS'bottom'
p541
I548
sS'saramvalentine'
p542
I549
sS'fox'
p543
I551
sS'cordray'
p544
I552
sS'everything'
p545
I553
sS'sotu'
p546
I683
sS'denied'
p547
I555
sS'cnn'
p548
I556
sS'christmas'
p549
I557
sS'itgetsbetter'
p550
I558
sS'strongerwithobama'
p551
I559
sS'columbus'
p552
I560
sS'bold'
p553
I561
sS'defend'
p554
I2501
sS'pose'
p555
I562
sS'graduates'
p556
I563
sS'binder'
p557
I564
sS'keeper'
p558
I758
sS'post'
p559
I566
sS'manufacturing'
p560
I567
sS'super'
p561
I568
sS'plug'
p562
I773
sS'chilean'
p563
I570
sS'dunking'
p564
I571
sS'dnc'
p565
I572
sS'attacks'
p566
I573
sS'dollars'
p567
I574
sS'months'
p568
I575
sS'assault'
p569
I981
sS'o'
p570
I577
sS'undocumented'
p571
I578
sS'dinner'
p572
I579
sS'ensure'
p573
I580
sS'commit'
p574
I581
sS'efforts'
p575
I582
sS'automatically'
p576
I583
sS'raised'
p577
I584
sS'presence'
p578
I585
sS'civil'
p579
I586
sS'pays'
p580
I587
sS'down'
p581
I588
sS'thankful'
p582
I589
sS'magazines'
p583
I590
sS'old'
p584
I591
sS'east'
p585
I592
sS'deal'
p586
I593
sS'support'
p587
I594
sS'wad'
p588
I595
sS'legislation'
p589
I596
sS'approximate'
p590
I597
sS'fight'
p591
I598
sS'fought'
p592
I599
sS'way'
p593
I600
sS'fairness'
p594
I1296
sS'was'
p595
I601
sS'war'
p596
I602
sS'launching'
p597
I603
sS'happy'
p598
I604
sS'lowest'
p599
I605
sS'head'
p600
I606
sS'form'
p601
I966
sS'offer'
p602
I608
sS'becoming'
p603
I610
sS'differences'
p604
I611
sS'removes'
p605
I612
sS'deny'
p606
I2181
sS'heat'
p607
I614
sS'hear'
p608
I615
sS'true'
p609
I616
sS'fort'
p610
I617
sS'congratulations'
p611
I618
sS'humbled'
p612
I619
sS'builds'
p613
I1018
sS'reproductive'
p614
I621
sS'streaming'
p615
I1815
sS'until'
p616
I623
sS'mth'
p617
I1041
sS'economic'
p618
I1817
sS'lays'
p619
I625
sS'rehire'
p620
I626
sS'fulfills'
p621
I627
sS'promises'
p622
I628
sS'liberal'
p623
I1074
sS'wealthy'
p624
I2350
sS'covers'
p625
I631
sS'evidence'
p626
I1090
sS'sometime'
p627
I633
sS'exist'
p628
I634
sS'promised'
p629
I635
sS'shines'
p630
I636
sS'americaleads'
p631
I1116
sS'nh'
p632
I638
sS'nj'
p633
I639
sS'weakened'
p634
I1131
sS'no'
p635
I1133
sS'daca'
p636
I642
sS'stake'
p637
I1139
sS'when'
p638
I644
sS'reality'
p639
I1147
sS'setting'
p640
I646
sS'role'
p641
I647
sS'holding'
p642
I648
sS'digital'
p643
I649
sS'roll'
p644
I650
sS'garland'
p645
I651
sS'welcome'
p646
I652
sS'update'
p647
I653
sS'phony'
p648
I654
sS'parenthood'
p649
I655
sS'class'
p650
I2486
sS'invested'
p651
I656
sS'weekend'
p652
I657
sS'died'
p653
I658
sS'billion'
p654
I659
sS'longer'
p655
I1239
sS'together'
p656
I661
sS'premiums'
p657
I662
sS'reception'
p658
I663
sS'time'
p659
I664
sS'push'
p660
I665
sS'serious'
p661
I666
sS'backward'
p662
I667
sS'profits'
p663
I668
sS'equalizer'
p664
I669
sS'corps'
p665
I670
sS'diplomacy'
p666
I671
sS'dance'
p667
I672
sS'global'
p668
I673
sS'focus'
p669
I674
sS'leads'
p670
I676
sS'grateful'
p671
I677
sS'vet'
p672
I678
sS'obamacare'
p673
I679
sS'environment'
p674
I680
sS'answered'
p675
I681
sS'finally'
p676
I682
sS'asking'
p677
I554
sS'marks'
p678
I684
sS'veterans'
p679
I685
sS'eliminate'
p680
I1824
sS'brown'
p681
I687
sS'paychecks'
p682
I688
sS'keeping'
p683
I1411
sS'congratulating'
p684
I690
sS'choice'
p685
I691
sS'lynch'
p686
I692
sS'join'
p687
I118
sS'minute'
p688
I695
sS'dim'
p689
I696
sS'solves'
p690
I697
sS'did'
p691
I698
sS'die'
p692
I699
sS'dig'
p693
I700
sS'proposals'
p694
I701
sS'hawaii'
p695
I675
sS'skewed'
p696
I703
sS'magnet'
p697
I704
sS'p'
p698
I705
sS'thanksgivukkah'
p699
I706
sS'team'
p700
I707
sS'affordablecare'
p701
I708
sS'round'
p702
I709
sS'shave'
p703
I710
sS'prevent'
p704
I711
sS'brave'
p705
I712
sS'says'
p706
I713
sS'strickland'
p707
I714
sS'pregnancies'
p708
I715
sS'sign'
p709
I716
sS'romnesia'
p710
I717
sS'cost'
p711
I718
sS'run'
p712
I1829
sS'educate'
p713
I720
sS'adds'
p714
I721
sS'constitution'
p715
I722
sS'shares'
p716
I723
sS'uniform'
p717
I724
sS'immigrationaction'
p718
I725
sS'reply'
p719
I726
sS'celebrates'
p720
I727
sS'filled'
p721
I728
sS'supporting'
p722
I729
sS'bo'
p723
I1831
sS'marchforinnov'
p724
I731
sS'learn'
p725
I1417
sS'water'
p726
I734
sS'abandon'
p727
I1418
sS'groups'
p728
I736
sS'address'
p729
I737
sS'alone'
p730
I738
sS'along'
p731
I739
sS'teacher'
p732
I740
sS'change'
p733
I741
sS'wait'
p734
I742
sS'sending'
p735
I743
sS'enroll'
p736
I744
sS'male'
p737
I1419
sS'healthy'
p738
I746
sS'jay'
p739
I2198
sS'wherever'
p740
I748
sS'step'
p741
I1833
sS'accomplished'
p742
I750
sS'boo'
p743
I751
sS'reclaim'
p744
I753
sS'love'
p745
I754
sS'mccormick'
p746
I755
sS'extra'
p747
I756
sS'bloody'
p748
I757
sS'losing'
p749
I565
sS'flexibility'
p750
I759
sS'patriots'
p751
I760
sS'crisis'
p752
I761
sS'everybody'
p753
I762
sS'working'
p754
I763
sS'prove'
p755
I764
sS'visit'
p756
I765
sS'predictions'
p757
I766
sS'by'
p758
I1837
sS'insider'
p759
I768
sS'live'
p760
I769
sS'memory'
p761
I770
sS'msg'
p762
I771
sS'today'
p763
I772
sS'chapter'
p764
I569
sS'kerry'
p765
I774
sS'afford'
p766
I775
sS'effort'
p767
I776
sS'behalf'
p768
I777
sS'fly'
p769
I778
sS'rebounding'
p770
I779
sS'anything'
p771
I1841
sS'car'
p772
I781
sS'rutherford'
p773
I782
sS'flu'
p774
I783
sS'believes'
p775
I784
sS'hardest'
p776
I785
sS'values'
p777
I786
sS'can'
p778
I787
sS'growing'
p779
I788
sS'making'
p780
I789
sS'thekidsneedtoknow'
p781
I790
sS'streak'
p782
I791
sS'spy'
p783
I792
sS'dedicated'
p784
I793
sS'valentines'
p785
I794
sS'figure'
p786
I795
sS'predict'
p787
I796
sS'awesome'
p788
I797
sS'millionaires'
p789
I798
sS'heard'
p790
I799
sS'<pad>'
p791
I800
sS'allowed'
p792
I801
sS'counting'
p793
I802
sS'pink'
p794
I803
sS'unwavering'
p795
I804
sS'bankrupt'
p796
I805
sS'secured'
p797
I806
sS'eloquent'
p798
I807
sS'giveaways'
p799
I808
sS'sunday'
p800
I809
sS'vital'
p801
I810
sS'fourth'
p802
I811
sS'speaks'
p803
I812
sS'sworn'
p804
I813
sS'pathway'
p805
I814
sS'springfield'
p806
I815
sS'economy'
p807
I816
sS'map'
p808
I817
sS'staying'
p809
I818
sS'mar'
p810
I819
sS'information'
p811
I1431
sS'may'
p812
I821
sS'sacrifice'
p813
I822
sS'use'
p814
I1832
sS'crashed'
p815
I823
sS'heartbreaking'
p816
I824
sS'birthday'
p817
I825
sS'designed'
p818
I826
sS'heroes'
p819
I827
sS'employers'
p820
I1014
sS'guys'
p821
I829
sS'grow'
p822
I830
sS'man'
p823
I832
sS'classroom'
p824
I833
sS'remember'
p825
I834
sS'johnson'
p826
I835
sS'st'
p827
I836
sS'so'
p828
I838
sS'african'
p829
I839
sS'marriageequality'
p830
I840
sS'tall'
p831
I841
sS'talk'
p832
I842
sS'typical'
p833
I843
sS'exclusive'
p834
I844
sS'midnight'
p835
I846
sS'years'
p836
I848
sS'hiring'
p837
I849
sS'cuts'
p838
I850
sS'cold'
p839
I852
sS'still'
p840
I853
sS'texan'
p841
I854
sS'thank'
p842
I855
sS'jim'
p843
I856
sS'continue'
p844
I1805
sS'tweets'
p845
I857
sS'ours'
p846
I858
sS'hanks'
p847
I859
sS'bipartisan'
p848
I860
sS'loophole'
p849
I861
sS'texas'
p850
I862
sS'civilian'
p851
I863
sS'moms'
p852
I864
sS'killer'
p853
I865
sS'nation'
p854
I866
sS'parkman'
p855
I867
sS'course'
p856
I2217
sS'half'
p857
I868
sS'not'
p858
I869
sS'nov'
p859
I870
sS'now'
p860
I871
sS'hall'
p861
I872
sS'term'
p862
I873
sS'equality'
p863
I874
sS'name'
p864
I875
sS'january'
p865
I213
sS'didn'
p866
I877
sS'gamble'
p867
I878
sS'quarter'
p868
I879
sS'weighted'
p869
I880
sS'fired'
p870
I881
sS'ed'
p871
I882
sS'breakthrough'
p872
I883
sS'begun'
p873
I884
sS'year'
p874
I885
sS'et'
p875
I886
sS'happen'
p876
I609
sS'morning'
p877
I888
sS'intended'
p878
I1128
sS'hcr'
p879
I890
sS'ernestmoniz'
p880
I891
sS'ultimately'
p881
I892
sS'increase'
p882
I893
sS'mess'
p883
I894
sS'imperative'
p884
I895
sS'internet'
p885
I896
sS'shows'
p886
I897
sS'earlier'
p887
I898
sS'theory'
p888
I899
sS'cars'
p889
I900
sS'million'
p890
I901
sS'grandma'
p891
I903
sS'obligation'
p892
I904
sS'grab'
p893
I2227
sS'card'
p894
I906
sS'care'
p895
I907
sS'couldn'
p896
I908
sS'amanda'
p897
I1025
sS'thing'
p898
I910
sS'indomitable'
p899
I1448
sS'place'
p900
I912
sS'loretta'
p901
I913
sS'think'
p902
I162
sS'first'
p903
I915
sS'cheese'
p904
I916
sS'saving'
p905
I917
sS'xl'
p906
I918
sS'coming'
p907
I1450
sS'yourself'
p908
I197
sS'americans'
p909
I921
sS'long'
p910
I1860
sS'directly'
p911
I923
sS'vote'
p912
I924
sS'corporations'
p913
I925
sS'message'
p914
I926
sS'open'
p915
I927
sS'tomorrow'
p916
I928
sS'discharged'
p917
I929
sS'millions'
p918
I930
sS'city'
p919
I931
sS'little'
p920
I238
sS'sheet'
p921
I933
sS'trillion'
p922
I934
sS'anyone'
p923
I935
sS'tragic'
p924
I936
sS'lobbyists'
p925
I937
sS'convention'
p926
I938
sS'white'
p927
I939
sS'speaking'
p928
I288
sS'gives'
p929
I941
sS'eyes'
p930
I942
sS'that'
p931
I943
sS'season'
p932
I944
sS'cops'
p933
I945
sS'hartford'
p934
I946
sS'than'
p935
I947
sS'television'
p936
I948
sS'protected'
p937
I475
sS'were'
p938
I951
sS'cards'
p939
I952
sS'russia'
p940
I953
sS'pre'
p941
I404
sS'addressing'
p942
I955
sS'dcck'
p943
I752
sS'petesessions'
p944
I957
sS'turned'
p945
I958
sS'voices'
p946
I959
sS'say'
p947
I960
sS'any'
p948
I962
sS'sat'
p949
I963
sS'giffords'
p950
I964
sS'prosperity'
p951
I965
sS'offering'
p952
I607
sS'veteran'
p953
I967
sS'ideas'
p954
I499
sS'take'
p955
I969
sS'online'
p956
I970
sS'performance'
p957
I971
sS'personalized'
p958
I972
sS'urge'
p959
I973
sS'sure'
p960
I974
sS'track'
p961
I975
sS'price'
p962
I976
sS'keeps'
p963
I977
sS'paid'
p964
I979
sS'mammograms'
p965
I980
sS'donation'
p966
I576
sS'printed'
p967
I982
sS'remarks'
p968
I983
sS'america'
p969
I984
sS'tenn'
p970
I2240
sS'michelle'
p971
I986
sS'average'
p972
I987
sS'proud'
p973
I988
sS'steady'
p974
I989
sS'drive'
p975
I990
sS'order'
p976
I991
sS'federal'
p977
I1038
sS'axe'
p978
I993
sS'laws'
p979
I994
sS'madison'
p980
I1036
sS'shot'
p981
I996
sS'show'
p982
I997
sS'recipe'
p983
I998
sS'ground'
p984
I1000
sS'deportation'
p985
I1001
sS'raisethewage'
p986
I1002
sS'gulf'
p987
I1003
sS'whcd'
p988
I1004
sS'pump'
p989
I999
sS'crime'
p990
I1006
sS'only'
p991
I1007
sS'going'
p992
I1008
sS'believing'
p993
I1009
sS'nhlblackhawks'
p994
I1010
sS'congressional'
p995
I1011
sS'get'
p996
I1012
sS'reps'
p997
I1013
sS'truly'
p998
I828
sS'nearly'
p999
I1015
sS'progress'
p1000
I2246
sS'gen'
p1001
I1016
sS'lovewins'
p1002
I620
sS'regarding'
p1003
I1019
sS'resource'
p1004
I1020
sS'repflores'
p1005
I1021
sS'joebiden'
p1006
I1022
sS'summary'
p1007
I949
sS'paper'
p1008
I1468
sS'asne'
p1009
I1024
sS'where'
p1010
I909
sS'vision'
p1011
I1026
sS'ignored'
p1012
I1027
sS'incarcerated'
p1013
I1028
sS'seat'
p1014
I1029
sS'elected'
p1015
I1031
sS'college'
p1016
I1032
sS'apologies'
p1017
I1033
sS'stanley'
p1018
I1034
sS'equalpay'
p1019
I1035
sS'fails'
p1020
I978
sS'mortgage'
p1021
I1037
sS'ways'
p1022
I992
sS'alarming'
p1023
I1039
sS'seekers'
p1024
I1040
sS'tucson'
p1025
I624
sS'weapons'
p1026
I1042
sS'enough'
p1027
I1005
sS'between'
p1028
I1044
sS'affecting'
p1029
I1045
sS'jobsnow'
p1030
I1046
sS'checks'
p1031
I1047
sS'caucus'
p1032
I1048
sS'affordable'
p1033
I1049
sS'notice'
p1034
I1050
sS'infrastructure'
p1035
I1051
sS'jobs'
p1036
I1052
sS'dome'
p1037
I1053
sS'blame'
p1038
I1054
sS'dhsgov'
p1039
I1055
sS'hurts'
p1040
I1056
sS'hand'
p1041
I2462
sS'come'
p1042
I1057
sS'talented'
p1043
I1058
sS'many'
p1044
I1059
sS'region'
p1045
I1060
sS'malia'
p1046
I1882
sS'enabling'
p1047
I1062
sS's'
p1048
I1063
sS'berry'
p1049
I1064
sS'highlights'
p1050
I1065
sS'senator'
p1051
I1066
sS'groundhog'
p1052
I1067
sS'comes'
p1053
I1068
sS'merry'
p1054
I2255
sS'color'
p1055
I1070
sS'period'
p1056
I1071
sS'enrollment'
p1057
I1731
sS'denver'
p1058
I1072
sS'learning'
p1059
I1073
sS'proved'
p1060
I629
sS'chag'
p1061
I1883
sS'destroyed'
p1062
I1076
sS'intrude'
p1063
I1077
sS'cares'
p1064
I1078
sS'west'
p1065
I1079
sS'ledbetter'
p1066
I1080
sS'mark'
p1067
I1081
sS'combined'
p1068
I1082
sS'featuring'
p1069
I1083
sS'wants'
p1070
I1247
sS'direction'
p1071
I1085
sS'shopping'
p1072
I1086
sS'boehnershutdown'
p1073
I1087
sS'photos'
p1074
I1088
sS'ferrell'
p1075
I632
sS'champions'
p1076
I1091
sS'millionandcounting'
p1077
I1308
sS'case'
p1078
I1093
sS'these'
p1079
I1094
sS'wealthiest'
p1080
I1095
sS'worried'
p1081
I1023
sS'trick'
p1082
I1096
sS'cast'
p1083
I1097
sS'ongoing'
p1084
I1098
sS'policies'
p1085
I1099
sS'promising'
p1086
I1100
sS'situation'
p1087
I1101
sS'donors'
p1088
I1102
sS'commander'
p1089
I1103
sS'middle'
p1090
I1104
sS'evening'
p1091
I1483
sS'embrace'
p1092
I1106
sS'sameach'
p1093
I1107
sS'affected'
p1094
I1108
sS'technology'
p1095
I1109
sS'everyday'
p1096
I1110
sS'worry'
p1097
I1111
sS'different'
p1098
I1112
sS'doctor'
p1099
I1113
sS'pay'
p1100
I1114
sS'same'
p1101
I1115
sS'check'
p1102
I637
sS'speech'
p1103
I1117
sS'underestimate'
p1104
I1118
sS'reminder'
p1105
I1119
sS'events'
p1106
I1121
sS'week'
p1107
I1122
sS'oil'
p1108
I1123
sS'centuries'
p1109
I1124
sS'applaud'
p1110
I1125
sS'running'
p1111
I1126
sS'statue'
p1112
I1127
sS'changing'
p1113
I1129
sS'renewable'
p1114
I1130
sS'pledging'
p1115
I640
sS'pennsylvania'
p1116
I1132
sS'floor'
p1117
I641
sS'severe'
p1118
I1134
sS'costs'
p1119
I1135
sS'relief'
p1120
I1136
sS'bodies'
p1121
I1137
sS'summer'
p1122
I1138
sS'nc'
p1123
I643
sS'being'
p1124
I1140
sS'money'
p1125
I1141
sS'guided'
p1126
I1142
sS'sights'
p1127
I1143
sS'actions'
p1128
I1144
sS'youwillnotbetakenseriouslyif'
p1129
I1145
sS'polish'
p1130
I1668
sS'ofafallsummit'
p1131
I645
sS'speed'
p1132
I1148
sS'weekly'
p1133
I1149
sS'death'
p1134
I1150
sS'thinking'
p1135
I1151
sS'except'
p1136
I1152
sS'blog'
p1137
I1153
sS'lets'
p1138
I1154
sS'thoughts'
p1139
I1155
sS'real'
p1140
I1156
sS'consumption'
p1141
I1993
sS'around'
p1142
I1157
sS'romneyeconomics'
p1143
I1158
sS'read'
p1144
I1159
sS'irandeal'
p1145
I1160
sS'selma'
p1146
I1161
sS'virginia'
p1147
I1162
sS'early'
p1148
I1163
sS'mom'
p1149
I1164
sS'world'
p1150
I1165
sS'disappointed'
p1151
I1166
sS'fortune'
p1152
I1167
sS'kennedy'
p1153
I1168
sS'patrick'
p1154
I1169
sS'facing'
p1155
I1171
sS'chamber'
p1156
I1172
sS'benefit'
p1157
I1173
sS'donations'
p1158
I1174
sS't'
p1159
I1175
sS'dontdoublemyrate'
p1160
I1176
sS'fully'
p1161
I1492
sS'served'
p1162
I1178
sS'endorsed'
p1163
I1179
sS'reduced'
p1164
I1180
sS'wedemandavote'
p1165
I1182
sS'moving'
p1166
I1762
sS'competition'
p1167
I1183
sS'thinks'
p1168
I1184
sS'passions'
p1169
I1185
sS'highest'
p1170
I2448
sS'recorded'
p1171
I1186
sS'legal'
p1172
I1187
sS'conservative'
p1173
I1188
sS'habits'
p1174
I1494
sS'deficit'
p1175
I1190
sS'ct'
p1176
I2278
sS'restoring'
p1177
I1192
sS'business'
p1178
I1193
sS'sensible'
p1179
I1194
sS'each'
p1180
I1195
sS'broken'
p1181
I1196
sS'leadership'
p1182
I1197
sS'throw'
p1183
I1198
sS'manufacturer'
p1184
I1199
sS'on'
p1185
I1200
sS'aca'
p1186
I1201
sS'central'
p1187
I1202
sS'package'
p1188
I1203
sS'island'
p1189
I1204
sS'industry'
p1190
I1205
sS'violence'
p1191
I1206
sS'favorite'
p1192
I1207
sS'side'
p1193
I378
sS'practical'
p1194
I1210
sS'medicare'
p1195
I1211
sS'stand'
p1196
I1212
sS'act'
p1197
I1213
sS'or'
p1198
I1214
sS'road'
p1199
I1215
sS'op'
p1200
I1216
sS'whites'
p1201
I1217
sS'image'
p1202
I1218
sS'blessed'
p1203
I1219
sS'wrongagainryan'
p1204
I1220
sS'accounts'
p1205
I1221
sS'dreaming'
p1206
I1222
sS'watchdog'
p1207
I1223
sS'your'
p1208
I1224
sS'legacy'
p1209
I2237
sS'her'
p1210
I1225
sS'aren'
p1211
I1226
sS'there'
p1212
I1227
sS'hey'
p1213
I1228
sS'start'
p1214
I1229
sS'lot'
p1215
I1230
sS'hard'
p1216
I1503
sS'strikes'
p1217
I1233
sS'gore'
p1218
I1235
sS'costco'
p1219
I1236
sS'with'
p1220
I1237
sS'proposal'
p1221
I1900
sS'happening'
p1222
I660
sS'extend'
p1223
I1240
sS'hire'
p1224
I1241
sS'fraud'
p1225
I1242
sS'bucket'
p1226
I1243
sS'politically'
p1227
I1245
sS'agree'
p1228
I1246
sS'collegeopportunity'
p1229
I1084
sS'intents'
p1230
I1248
sS'taylor'
p1231
I1249
sS'ad'
p1232
I1250
sS'videos'
p1233
I1251
sS'ak'
p1234
I1252
sS'am'
p1235
I1253
sS'al'
p1236
I1254
sS'deep'
p1237
I1255
sS'fellow'
p1238
I1256
sS'as'
p1239
I1257
sS'at'
p1240
I1258
sS'trickled'
p1241
I1259
sS'politics'
p1242
I1260
sS'fill'
p1243
I1261
sS'again'
p1244
I1262
sS'yom'
p1245
I1263
sS'beyond'
p1246
I1512
sS'deserve'
p1247
I1264
sS'insurance'
p1248
I1513
sS'tight'
p1249
I1266
sS'readytowork'
p1250
I1267
sS'you'
p1251
I1268
sS'poor'
p1252
I1269
sS'shutdowns'
p1253
I1270
sS'congress'
p1254
I1271
sS'students'
p1255
I1272
sS'important'
p1256
I1273
sS'massachusetts'
p1257
I1274
sS'coverage'
p1258
I1275
sS'tackle'
p1259
I1276
sS'finals'
p1260
I1277
sS'building'
p1261
I1278
sS'shipping'
p1262
I2420
sS'calls'
p1263
I1279
sS'invest'
p1264
I1280
sS'odds'
p1265
I1281
sS'repay'
p1266
I1282
sS'u'
p1267
I1283
sS'nelson'
p1268
I1284
sS'overseas'
p1269
I1285
sS'starting'
p1270
I1286
sS'colleges'
p1271
I2
sS'forget'
p1272
I9
sS'founder'
p1273
I1289
sS'grassroots'
p1274
I1290
sS'groundwork'
p1275
I1291
sS'caused'
p1276
I1292
sS'month'
p1277
I1293
sS'founded'
p1278
I1294
sS'deadline'
p1279
I1295
sS'welfare'
p1280
I45
sS'follow'
p1281
I1297
sS'religious'
p1282
I56
sS'children'
p1283
I1299
sS'tx'
p1284
I1300
sS'tv'
p1285
I1301
sS'pledged'
p1286
I1302
sS'wyoming'
p1287
I1303
sS'opportunities'
p1288
I98
sS'former'
p1289
I1305
sS'opportunityforall'
p1290
I1306
sS'to'
p1291
I1307
sS'those'
p1292
I1092
sS'th'
p1293
I1309
sS'safety'
p1294
I1524
sS'lawmakers'
p1295
I1311
sS'mandela'
p1296
I1312
sS'thisiswhy'
p1297
I1030
sS'worse'
p1298
I1314
sS'sitting'
p1299
I1315
sS'very'
p1300
I1316
sS'sasha'
p1301
I1318
sS'sons'
p1302
I1319
sS'decide'
p1303
I1320
sS'fall'
p1304
I1321
sS'awful'
p1305
I1322
sS'ticket'
p1306
I1323
sS'difference'
p1307
I1324
sS'condition'
p1308
I1325
sS'treating'
p1309
I1326
sS'heaven'
p1310
I195
sS'recommit'
p1311
I1328
sS'list'
p1312
I1329
sS'joined'
p1313
I1330
sS'warrenbuffett'
p1314
I1331
sS'reminding'
p1315
I221
sS'lesbians'
p1316
I1333
sS'small'
p1317
I1334
sS'angelou'
p1318
I1335
sS'tea'
p1319
I1336
sS'ted'
p1320
I1337
sS'past'
p1321
I1338
sS'go'
p1322
I1923
sS'rate'
p1323
I1340
sS'pass'
p1324
I1341
sS'canvass'
p1325
I1342
sS'harder'
p1326
I2302
sS'womensucceed'
p1327
I1343
sS'investment'
p1328
I1344
sS'conscience'
p1329
I1345
sS'what'
p1330
I1346
sS'stood'
p1331
I1347
sS'richard'
p1332
I315
sS'clock'
p1333
I1349
sS'investing'
p1334
I1350
sS'deeply'
p1335
I1351
sS'anniversary'
p1336
I1352
sS'crush'
p1337
I1353
sS'version'
p1338
I1354
sS'scientists'
p1339
I1355
sS'tribute'
p1340
I1356
sS'public'
p1341
I1357
sS'movement'
p1342
I1359
sS'hasn'
p1343
I1360
sS'full'
p1344
I1361
sS'iran'
p1345
I1362
sS'answers'
p1346
I1363
sS'hours'
p1347
I1364
sS'shouldn'
p1348
I1365
sS'actonjobs'
p1349
I1366
sS'investigating'
p1350
I1367
sS'november'
p1351
I1368
sS'iraq'
p1352
I414
sS'observing'
p1353
I1370
sS'tragedy'
p1354
I1371
sS'speeches'
p1355
I1372
sS'leveling'
p1356
I438
sS'inspired'
p1357
I1374
sS'allows'
p1358
I1375
sS'airport'
p1359
I1376
sS'healthier'
p1360
I1377
sS'pick'
p1361
I469
sS'action'
p1362
I1379
sS'options'
p1363
I1380
sS'sticking'
p1364
I1381
sS'via'
p1365
I1382
sS'toughness'
p1366
I1383
sS'family'
p1367
I1384
sS'suddenly'
p1368
I1385
sS'father'
p1369
I1386
sS'wesleyan'
p1370
I1387
sS'put'
p1371
I1535
sS'aimed'
p1372
I1389
sS'detailsmatter'
p1373
I1390
sS'armed'
p1374
I1391
sS'takes'
p1375
I1392
sS'iraqi'
p1376
I1393
sS'texting'
p1377
I1394
sS'two'
p1378
I1395
sS'taken'
p1379
I1396
sS'authorization'
p1380
I1397
sS'more'
p1381
I1398
sS'israel'
p1382
I1399
sS'door'
p1383
I1400
sS'knows'
p1384
I1401
sS'pennypritzker'
p1385
I1402
sS'iowans'
p1386
I1403
sS'company'
p1387
I1404
sS'notbackingdown'
p1388
I1405
sS'excuse'
p1389
I1406
sS'landed'
p1390
I1407
sS'tees'
p1391
I1408
sS'town'
p1392
I1409
sS'vp'
p1393
I2309
sS'none'
p1394
I689
sS'hour'
p1395
I1412
sS'dems'
p1396
I2310
sS'science'
p1397
I1413
sS'des'
p1398
I1414
sS'timryan'
p1399
I1415
sS'resources'
p1400
I1935
sS'v'
p1401
I732
sS'michelleobama'
p1402
I735
sS'dec'
p1403
I745
sS'history'
p1404
I1420
sS'beautiful'
p1405
I1421
sS'stubborn'
p1406
I1422
sS'challenging'
p1407
I1423
sS'share'
p1408
I1424
sS'states'
p1409
I1425
sS'biden'
p1410
I1426
sS'minimum'
p1411
I1427
sS'protects'
p1412
I1428
sS'numbers'
p1413
I1429
sS'sense'
p1414
I1430
sS'huge'
p1415
I820
sS'needs'
p1416
I1432
sS'court'
p1417
I1433
sS'goal'
p1418
I1434
sS'rather'
p1419
I1435
sS'stickers'
p1420
I1436
sS'plans'
p1421
I1444
sS'breaking'
p1422
I1437
sS'randyneugebauer'
p1423
I1438
sS'naturbanleague'
p1424
I1439
sS'standwithourfuture'
p1425
I1440
sS'earnings'
p1426
I1441
sS'fed'
p1427
I1990
sS'hugs'
p1428
I1442
sS'hottest'
p1429
I2284
sS'plant'
p1430
I1443
sS'tried'
p1431
I889
sS'advice'
p1432
I1445
sS'frills'
p1433
I1446
sS'reflect'
p1434
I1447
sS'plane'
p1435
I911
sS'ff'
p1436
I1449
sS'waves'
p1437
I919
sS'response'
p1438
I1451
sS'a'
p1439
I1452
sS'refuse'
p1440
I1453
sS'register'
p1441
I1454
sS'crippling'
p1442
I1455
sS'responsibility'
p1443
I1456
sS'fundamental'
p1444
I1457
sS'banks'
p1445
I1458
sS'facebook'
p1446
I1940
sS'dream'
p1447
I1460
sS'playing'
p1448
I1461
sS'help'
p1449
I1462
sS'finalized'
p1450
I1463
sS'september'
p1451
I1464
sS'developed'
p1452
I1465
sS'soon'
p1453
I1466
sS'held'
p1454
I1467
sS'already'
p1455
I259
sS'through'
p1456
I1469
sS'signs'
p1457
I1470
sS'avenue'
p1458
I1471
sS'its'
p1459
I1472
sS'renewui'
p1460
I1473
sS'style'
p1461
I961
sS'taxpayer'
p1462
I1475
sS'actually'
p1463
I1476
sS'late'
p1464
I1477
sS'absence'
p1465
I1478
sS'penn'
p1466
I1480
sS'might'
p1467
I1481
sS'arguments'
p1468
I1482
sS'good'
p1469
I1105
sS'somebody'
p1470
I1484
sS'primary'
p1471
I1485
sS'geopolitical'
p1472
I1486
sS'newsflash'
p1473
I1487
sS'icymi'
p1474
I1488
sS'milestone'
p1475
I1489
sS'communities'
p1476
I1490
sS'actionsummit'
p1477
I2196
sS'bigger'
p1478
I1491
sS'always'
p1479
I1177
sS'someone'
p1480
I1493
sS'inequality'
p1481
I1189
sS'stopped'
p1482
I1495
sS'barrels'
p1483
I1496
sS'status'
p1484
I1497
sS'everyone'
p1485
I1498
sS'mental'
p1486
I1499
sS'generation'
p1487
I1500
sS'house'
p1488
I1501
sS'energy'
p1489
I1502
sS'repkeygranger'
p1490
I1231
sS'reduce'
p1491
I1504
sS'idea'
p1492
I1505
sS'gun'
p1493
I702
sS'finish'
p1494
I1507
sS'ryan'
p1495
I1947
sS'fist'
p1496
I1509
sS'berea'
p1497
I1510
sS'blues'
p1498
I1511
sS'standards'
p1499
I1317
sS'event'
p1500
I1265
sS'really'
p1501
I1514
sS'leave'
p1502
I1515
sS'initiatives'
p1503
I1516
sS'funding'
p1504
I1517
sS'missed'
p1505
I1518
sS'blacks'
p1506
I1519
sS'miss'
p1507
I1555
sS'nowisthetime'
p1508
I1521
sS'since'
p1509
I1522
sS'research'
p1510
I1523
sS'health'
p1511
I1310
sS'hill'
p1512
I1525
sS'issue'
p1513
I1526
sS'wisconsin'
p1514
I1527
sS'belief'
p1515
I1528
sS'friday'
p1516
I1529
sS'extraordinary'
p1517
I1530
sS'reason'
p1518
I1531
sS'giveaway'
p1519
I1532
sS'members'
p1520
I1533
sS'imagine'
p1521
I1534
sS'ask'
p1522
I1388
sS'earliest'
p1523
I1536
sS'beginning'
p1524
I1537
sS'bumped'
p1525
I1538
sS'owners'
p1526
I1539
sS'benefits'
p1527
I1540
sS'launch'
p1528
I1541
sS'success'
p1529
I1804
sS'american'
p1530
I1542
sS'threat'
p1531
I1543
sS'bumper'
p1532
I1544
sS'consequence'
p1533
I1545
sS'syria'
p1534
I1546
sS'major'
p1535
I1547
sS'feel'
p1536
I1548
sS'girls'
p1537
I1549
sS'knocking'
p1538
I1550
sS'number'
p1539
I1551
sS'diplomats'
p1540
I2269
sS'traveled'
p1541
I1552
sS'done'
p1542
I1553
sS'wages'
p1543
I1554
sS'bullied'
p1544
I1520
sS'passes'
p1545
I1556
sS'story'
p1546
I1557
sS'heads'
p1547
I1558
sS'guest'
p1548
I1559
sS'coasts'
p1549
I1560
sS'shooting'
p1550
I2474
sS'marchon'
p1551
I1561
sS'least'
p1552
I1562
sS'belongs'
p1553
I1563
sS'storm'
p1554
I320
sS'compromise'
p1555
I1566
sS'recovered'
p1556
I1567
sS'selling'
p1557
I1568
sS'passed'
p1558
I1565
sS'behind'
p1559
I1043
sS'hotel'
p1560
I1170
sS'paycheck'
p1561
I2337
sS'part'
p1562
I1573
sS'jordan'
p1563
I1574
sS'focusing'
p1564
I1575
sS'believe'
p1565
I1576
sS'convinced'
p1566
I1577
sS'inconvenient'
p1567
I1578
sS'stirs'
p1568
I1579
sS'obama'
p1569
I1580
sS'walkthewalk'
p1570
I1581
sS'king'
p1571
I1582
sS'kind'
p1572
I1583
sS'b'
p1573
I1584
sS'womensequalityday'
p1574
I1585
sS'condolences'
p1575
I1586
sS'double'
p1576
I1587
sS'colin'
p1577
I1588
sS'outrageous'
p1578
I1589
sS'marriage'
p1579
I1590
sS'risks'
p1580
I1591
sS'listen'
p1581
I1592
sS'treated'
p1582
I1593
sS'declare'
p1583
I1594
sS'cleaner'
p1584
I1596
sS'contraception'
p1585
I1597
sS'strengthen'
p1586
I1598
sS'worked'
p1587
I435
sS'fights'
p1588
I1600
sS'meltdown'
p1589
I1601
sS'sticker'
p1590
I451
sS'lie'
p1591
I1602
sS'built'
p1592
I1603
sS'trapped'
p1593
I1570
sS'accountable'
p1594
I1604
sS'majority'
p1595
I1605
sS'without'
p1596
I1606
sS'play'
p1597
I1607
sS'towards'
p1598
I535
sS'sweatshirts'
p1599
I1609
sS'reach'
p1600
I1610
sS'affordability'
p1601
I1611
sS'kal'
p1602
I1612
sS'most'
p1603
I1613
sS'plan'
p1604
I1614
sS'services'
p1605
I1615
sS'barackobama'
p1606
I1616
sS'loopholes'
p1607
I1617
sS'seize'
p1608
I1618
sS'clear'
p1609
I1619
sS'cover'
p1610
I1620
sS'clean'
p1611
I1621
sS'attacking'
p1612
I1622
sS'sector'
p1613
I1623
sS'gold'
p1614
I1624
sS'obligations'
p1615
I1625
sS'session'
p1616
I1626
sS'businesses'
p1617
I1627
sS'stores'
p1618
I2347
sS'fine'
p1619
I1629
sS'find'
p1620
I1630
sS'impact'
p1621
I1631
sS'duncan'
p1622
I1632
sS'justice'
p1623
I1633
sS'failed'
p1624
I1634
sS'betray'
p1625
I1635
sS'pretty'
p1626
I1636
sS'billclinton'
p1627
I1637
sS'giants'
p1628
I1638
sS'his'
p1629
I1639
sS'founding'
p1630
I1640
sS'hiv'
p1631
I1641
sS'dependent'
p1632
I1642
sS'sunny'
p1633
I1643
sS'cheaper'
p1634
I1644
sS'famous'
p1635
I1645
sS'feels'
p1636
I1646
sS'courage'
p1637
I1647
sS'fastest'
p1638
I1648
sS'pretending'
p1639
I1649
sS'during'
p1640
I1650
sS'him'
p1641
I1651
sS'jeanne'
p1642
I1652
sS'enemy'
p1643
I1653
sS'resolve'
p1644
I1654
sS'sacrificed'
p1645
I1655
sS'boost'
p1646
I1656
sS'sacrifices'
p1647
I1657
sS'common'
p1648
I1658
sS'hike'
p1649
I1659
sS'kalamazoo'
p1650
I1660
sS'repronpaul'
p1651
I1661
sS'set'
p1652
I1662
sS'patriotism'
p1653
I1663
sS'see'
p1654
I1664
sS'defense'
p1655
I1665
sS'are'
p1656
I1666
sS'sea'
p1657
I1667
sS'close'
p1658
I1669
sS'bark'
p1659
I1670
sS'retweet'
p1660
I1671
sS'matter'
p1661
I1672
sS'movie'
p1662
I1673
sS'please'
p1663
I1674
sS'won'
p1664
I1675
sS'toledo'
p1665
I1677
sS'consecutive'
p1666
I1678
sS'conditions'
p1667
I1679
sS'knowing'
p1668
I1680
sS'creating'
p1669
I1681
sS'sold'
p1670
I1682
sS'nashville'
p1671
I1683
sS'roe'
p1672
I1684
sS'ofaclimate'
p1673
I1685
sS'succeed'
p1674
I1686
sS'stopgunviolence'
p1675
I1687
sS'legislature'
p1676
I1688
sS'both'
p1677
I1689
sS'toward'
p1678
I1690
sS'prescription'
p1679
I112
sS'foreign'
p1680
I1692
sS'became'
p1681
I1693
sS'let'
p1682
I1967
sS'whole'
p1683
I1695
sS'consume'
p1684
I1696
sS'point'
p1685
I1697
sS'reasons'
p1686
I1698
sS'loan'
p1687
I1699
sS'community'
p1688
I1700
sS'shutdown'
p1689
I1701
sS'church'
p1690
I1702
sS'mission'
p1691
I1703
sS'nominee'
p1692
I1704
sS'create'
p1693
I1705
sS'political'
p1694
I1706
sS'due'
p1695
I1707
sS'strategy'
p1696
I1708
sS'hitting'
p1697
I1709
sS'whom'
p1698
I1710
sS'secret'
p1699
I1711
sS'pa'
p1700
I1712
sS'imports'
p1701
I1599
sS'preventable'
p1702
I1713
sS'pi'
p1703
I1714
sS'meeting'
p1704
I1715
sS'pm'
p1705
I1716
sS'slips'
p1706
I1717
sS'generating'
p1707
I1718
sS'flight'
p1708
I1719
sS'brother'
p1709
I2189
sS'gap'
p1710
I837
sS'fund'
p1711
I1721
sS'lives'
p1712
I1723
sS'representative'
p1713
I1724
sS'plants'
p1714
I1725
sS'pierce'
p1715
I1726
sS'uncertain'
p1716
I29
sS'look'
p1717
I1728
sS'congresstodolist'
p1718
I1729
sS'pacs'
p1719
I1730
sS'straight'
p1720
I40
sS'bill'
p1721
I1732
sS'elections'
p1722
I47
sS'governor'
p1723
I1734
sS'pace'
p1724
I54
sS'while'
p1725
I1736
sS'involved'
p1726
I1974
sS'fun'
p1727
I1738
sS'guide'
p1728
I1739
sS'birthright'
p1729
I1740
sS'hoping'
p1730
I1741
sS'voters'
p1731
I104
sS'calculator'
p1732
I1743
sS'belmont'
p1733
I1744
sS'hoax'
p1734
I1745
sS'ready'
p1735
I1746
sS'rid'
p1736
I1748
sS'fairer'
p1737
I1749
sS'funny'
p1738
I1750
sS'shirt'
p1739
I1751
sS'belong'
p1740
I1752
sS'rules'
p1741
I1753
sS'daughters'
p1742
I1754
sS'higher'
p1743
I1755
sS'used'
p1744
I1756
sS'comprehensive'
p1745
I1757
sS'yesterday'
p1746
I1758
sS'holidays'
p1747
I1759
sS'moment'
p1748
I1760
sS'levels'
p1749
I1761
sS'medicaid'
p1750
I630
sS'necessity'
p1751
I1763
sS'lower'
p1752
I1765
sS'task'
p1753
I1766
sS'poland'
p1754
I1767
sS'person'
p1755
I1768
sS'cheer'
p1756
I1769
sS'withdraw'
p1757
I1770
sS'san'
p1758
I956
sS'spend'
p1759
I1772
sS'prevention'
p1760
I1773
sS'know'
p1761
I2372
sS'listening'
p1762
I1774
sS'repealing'
p1763
I1775
sS'kippur'
p1764
I358
sS'uswnt'
p1765
I1777
sS'questions'
p1766
I1778
sS'using'
p1767
I1779
sS'continent'
p1768
I1780
sS'wage'
p1769
I1781
sS'cut'
p1770
I1782
sS'also'
p1771
I1783
sS'lady'
p1772
I1784
sS'workers'
p1773
I1785
sS'barack'
p1774
I1786
sS'eager'
p1775
I1787
sS'parents'
p1776
I1788
sS'homeland'
p1777
I1789
sS'win'
p1778
I1982
sS'kaczynski'
p1779
I2385
sS'ballots'
p1780
I1791
sS'guarantees'
p1781
I1792
sS'easter'
p1782
I1793
sS'excited'
p1783
I1794
sS'victims'
p1784
I60
sS'forces'
p1785
I1796
sS'emergency'
p1786
I1797
sS'demands'
p1787
I1798
sS'big'
p1788
I1799
sS'couple'
p1789
I1800
sS'suffering'
p1790
I483
sS'buyout'
p1791
I1802
sS'knock'
p1792
I1803
sS'd'
p1793
I524
sS'individuals'
p1794
I1479
sS'surging'
p1795
I1806
sS'popular'
p1796
I1807
sS'saddled'
p1797
I1808
sS'dinnerwithbarackandjoe'
p1798
I1809
sS'senate'
p1799
I1810
sS'wearorange'
p1800
I1811
sS'creation'
p1801
I1812
sS'some'
p1802
I1813
sS'back'
p1803
I1814
sS'urgent'
p1804
I622
sS'strongest'
p1805
I1816
sS'added'
p1806
I1608
sS'sight'
p1807
I1818
sS'ourselves'
p1808
I1819
sS'distorting'
p1809
I1820
sS'delivered'
p1810
I1821
sS'decision'
p1811
I1822
sS'per'
p1812
I1823
sS'retro'
p1813
I686
sS'innovation'
p1814
I1825
sS'either'
p1815
I1826
sS'cgi'
p1816
I1827
sS'be'
p1817
I1828
sS'patient'
p1818
I719
sS'word'
p1819
I1830
sS'davidvitter'
p1820
I730
sS'agreement'
p1821
I733
sS'merrick'
p1822
I749
sS'bp'
p1823
I1834
sS'output'
p1824
I1835
sS'refuses'
p1825
I1836
sS'abroad'
p1826
I767
sS'faith'
p1827
I1838
sS'pipeline'
p1828
I1839
sS'usa'
p1829
I1840
sS'volunteering'
p1830
I780
sS'passover'
p1831
I1842
sS'graduation'
p1832
I1843
sS'deserves'
p1833
I1844
sS'imarch'
p1834
I1845
sS'congressman'
p1835
I1846
sS'pollution'
p1836
I1847
sS'resiliency'
p1837
I1848
sS'clinton'
p1838
I1849
sS'plenty'
p1839
I1850
sS'into'
p1840
I1851
sS'within'
p1841
I1852
sS'nonsense'
p1842
I1853
sS'democrat'
p1843
I1506
sS'nothing'
p1844
I1854
sS'remembrance'
p1845
I1855
sS'pentagon'
p1846
I1856
sS'resilience'
p1847
I1857
sS'few'
p1848
I1995
sS'spending'
p1849
I1858
sS'question'
p1850
I1859
sS'fast'
p1851
I922
sS'custom'
p1852
I1861
sS'crackdown'
p1853
I1862
sS'forward'
p1854
I1863
sS'manufacture'
p1855
I1864
sS'an'
p1856
I2295
sS'registered'
p1857
I1865
sS'immigration'
p1858
I1866
sS'deductions'
p1859
I1867
sS'link'
p1860
I1868
sS'episode'
p1861
I1870
sS'line'
p1862
I1871
sS'raising'
p1863
I1872
sS'info'
p1864
I1873
sS'sounds'
p1865
I1874
sS'cio'
p1866
I1875
sS'up'
p1867
I1876
sS'us'
p1868
I1877
sS'erica'
p1869
I1878
sS'planet'
p1870
I1879
sS'delray'
p1871
I2388
sS'z'
p1872
I1881
sS'called'
p1873
I1061
sS'adults'
p1874
I1869
sS'introducing'
p1875
I1884
sS'defined'
p1876
I1885
sS'willed'
p1877
I1886
sS'doesn'
p1878
I1887
sS'single'
p1879
I1888
sS'unleashing'
p1880
I1474
sS'chat'
p1881
I1889
sS'rally'
p1882
I1890
sS'defines'
p1883
I1891
sS'ballot'
p1884
I2391
sS'peace'
p1885
I1893
sS'application'
p1886
I1894
sS'politicians'
p1887
I1895
sS'income'
p1888
I1897
sS'department'
p1889
I1898
sS'bandstand'
p1890
I1899
sS'gameday'
p1891
I1901
sS'problems'
p1892
I1902
sS'visits'
p1893
I1903
sS'prepared'
p1894
I1904
sS'helping'
p1895
I1905
sS'peopleoverpolitics'
p1896
I1906
sS'springsteen'
p1897
I1907
sS'ago'
p1898
I1908
sS'land'
p1899
I1909
sS'vice'
p1900
I1910
sS'age'
p1901
I1911
sS'youtube'
p1902
I1912
sS'rallies'
p1903
I1913
sS'far'
p1904
I1914
sS'having'
p1905
I1915
sS'once'
p1906
I1916
sS'code'
p1907
I1917
sS'broaden'
p1908
I1918
sS'existing'
p1909
I1919
sS'infographic'
p1910
I1920
sS'stops'
p1911
I1921
sS'broader'
p1912
I1922
sS'betterwithobamacare'
p1913
I1339
sS'gm'
p1914
I1924
sS'centers'
p1915
I1925
sS'issues'
p1916
I1926
sS'disposal'
p1917
I1928
sS'young'
p1918
I1929
sS'send'
p1919
I1930
sS'suits'
p1920
I1931
sS'helps'
p1921
I1932
sS'lilly'
p1922
I1934
sS'sent'
p1923
I1416
sS'enoughalready'
p1924
I1936
sS'outside'
p1925
I1937
sS'continues'
p1926
I1938
sS'wishes'
p1927
I1939
sS'putting'
p1928
I1459
sS'telling'
p1929
I1941
sS'gurion'
p1930
I1942
sS'entire'
p1931
I1943
sS'gender'
p1932
I1944
sS'button'
p1933
I1945
sS'michael'
p1934
I1946
sS'fewer'
p1935
I1508
sS'try'
p1936
I1948
sS'race'
p1937
I1949
sS'obesity'
p1938
I1950
sS'cap'
p1939
I1951
sS'netneutrality'
p1940
I1952
sS'video'
p1941
I1953
sS'booth'
p1942
I1954
sS'equal'
p1943
I2264
sS'honors'
p1944
I1955
sS'nevada'
p1945
I1956
sS'power'
p1946
I1957
sS'chicago'
p1947
I1958
sS'giving'
p1948
I1959
sS'access'
p1949
I1960
sS'waiting'
p1950
I1961
sS'led'
p1951
I1962
sS'degree'
p1952
I1963
sS'upsetting'
p1953
I1964
sS'delivering'
p1954
I1965
sS'bachelor'
p1955
I1966
sS'poverty'
p1956
I1694
sS'others'
p1957
I1968
sS'consideration'
p1958
I1969
sS'safer'
p1959
I1970
sS'fifteen'
p1960
I1971
sS'getcoverednow'
p1961
I1972
sS'great'
p1962
I1973
sS'chant'
p1963
I1737
sS'alaska'
p1964
I1975
sS'products'
p1965
I1976
sS'makes'
p1966
I1977
sS'honor'
p1967
I1978
sS'apple'
p1968
I1979
sS'claim'
p1969
I1980
sS'egypt'
p1970
I1981
sS'presidents'
p1971
I1790
sS'private'
p1972
I1983
sS'streamed'
p1973
I2024
sS'oval'
p1974
I1985
sS'apply'
p1975
I1986
sS'tools'
p1976
I1987
sS'menino'
p1977
I1988
sS'announced'
p1978
I2111
sS'standing'
p1979
I1989
sS'confidence'
p1980
I41
sS'from'
p1981
I1991
sS'stream'
p1982
I1992
sS'certificate'
p1983
I1676
sS'next'
p1984
I1994
sS'laying'
p1985
I1089
sS'doubt'
p1986
I1996
sS'estimated'
p1987
I1997
sS'congratulates'
p1988
I1998
sS'themselves'
p1989
I1999
sS'subsidies'
p1990
I1595
sS'touched'
p1991
I2001
sS'actonclimate'
p1992
I2002
sS'gained'
p1993
I2413
sS'journalists'
p1994
I2004
sS'started'
p1995
I2005
sS'about'
p1996
I2414
sS'trail'
p1997
I2008
sS'promisekept'
p1998
I2009
sS'appointed'
p1999
I2010
sS'women'
p2000
I2011
sS'account'
p2001
I2012
sS'announcing'
p2002
I2014
sS'sanctions'
p2003
I2015
sS'this'
p2004
I2016
sS'challenge'
p2005
I2017
sS'oh'
p2006
I2018
sS'of'
p2007
I2019
sS'meet'
p2008
I2020
sS'closing'
p2009
I2021
sS'potus'
p2010
I2022
sS'control'
p2011
I2023
sS'arlen'
p2012
I1984
sS'reserved'
p2013
I2025
sS'plate'
p2014
I2026
sS'process'
p2015
I2027
sS'tax'
p2016
I2028
sS'purposes'
p2017
I2029
sS'high'
p2018
I2030
sS'pulling'
p2019
I2031
sS'something'
p2020
I2032
sS'sought'
p2021
I2033
sS'hit'
p2022
I2034
sS'rape'
p2023
I2035
sS'afl'
p2024
I2036
sS'united'
p2025
I2037
sS'embodiment'
p2026
I2038
sS'democracy'
p2027
I2039
sS'sit'
p2028
I2040
sS'destroying'
p2029
I2041
sS'six'
p2030
I2042
sS'findyourpark'
p2031
I2043
sS'winners'
p2032
I2044
sS'forest'
p2033
I2045
sS'instead'
p2034
I2046
sS'y'
p2035
I1771
sS'farm'
p2036
I2047
sS'stop'
p2037
I2048
sS'philosophy'
p2038
I2049
sS'ties'
p2039
I2050
sS'winter'
p2040
I2051
sS'light'
p2041
I2052
sS'chief'
p2042
I2053
sS'agenda'
p2043
I2054
sS'looking'
p2044
I10
sS'longest'
p2045
I2056
sS'deniers'
p2046
I2057
sS'timetoact'
p2047
I2058
sS'move'
p2048
I2059
sS'michaelcburgess'
p2049
I2060
sS'including'
p2050
I2061
sS'looks'
p2051
I2062
sS'cruise'
p2052
I2063
sS'warren'
p2053
I2064
sS'perfect'
p2054
I2065
sS'chosen'
p2055
I2066
sS'll'
p2056
I2067
sS'winning'
p2057
I2068
sS'owe'
p2058
I2427
sS'permanent'
p2059
I2070
sS'choose'
p2060
I2071
sS'covered'
p2061
I2072
sS'holiday'
p2062
I2073
sS'dad'
p2063
I2074
sS'crash'
p2064
I2075
sS'greater'
p2065
I2076
sS'auto'
p2066
I2077
sS'disrupted'
p2067
I2078
sS'cutting'
p2068
I2079
sS'legendary'
p2069
I2080
sS'souza'
p2070
I2081
sS'republican'
p2071
I2082
sS'handy'
p2072
I1358
sS'presidential'
p2073
I2084
sS'applicants'
p2074
I2085
sS'university'
p2075
I2086
sS'slide'
p2076
I2087
sS'truth'
p2077
I2088
sS'rising'
p2078
I2089
sS'shaking'
p2079
I2090
sS'francisco'
p2080
I2482
sS'seniors'
p2081
I2091
sS'doing'
p2082
I2092
sS'parties'
p2083
I2093
sS'unbelievable'
p2084
I2094
sS'static'
p2085
I2095
sS'changed'
p2086
I449
sS'our'
p2087
I2097
sS'nbafinals'
p2088
I2098
sS'sexual'
p2089
I2099
sS'special'
p2090
I2100
sS'out'
p2091
I2101
sS'fundamentally'
p2092
I2103
sS'announces'
p2093
I2105
sS'rep'
p2094
I2106
sS'laramie'
p2095
I2107
sS'honorable'
p2096
I2108
sS'electronics'
p2097
I2109
sS'supports'
p2098
I2110
sS'red'
p2099
I39
sS'shut'
p2100
I2112
sS'payroll'
p2101
I2113
sS'delegates'
p2102
I2114
sS'completely'
p2103
I2115
sS'jill'
p2104
I2116
sS'york'
p2105
I2117
sS'quo'
p2106
I2118
sS'backwards'
p2107
I2119
sS'yard'
p2108
I2120
sS'g'
p2109
I2121
sS'spill'
p2110
I2122
sS'could'
p2111
I2123
sS'florida'
p2112
I2124
sS'keep'
p2113
I134
sS'conversation'
p2114
I2126
sS'produce'
p2115
I2127
sS'austin'
p2116
I2128
sS'scare'
p2117
I2129
sS'succeeds'
p2118
I2130
sS'flyers'
p2119
I397
sS'powerful'
p2120
I2132
sS'bama'
p2121
I2133
sS'buffettrule'
p2122
I2134
sS'reached'
p2123
I2135
sS'quality'
p2124
I2136
sS'madeinamerica'
p2125
I251
sS'ordering'
p2126
I2138
sS'durable'
p2127
I2139
sS'idahot'
p2128
I2140
sS'system'
p2129
I2141
sS'priority'
p2130
I2142
sS'their'
p2131
I2143
sS'prouder'
p2132
I2144
sS'final'
p2133
I2145
sS'interests'
p2134
I2146
sS'yomkippur'
p2135
I2147
sS'wendell'
p2136
I2148
sS'july'
p2137
I2149
sS'overwhelming'
p2138
I2150
sS'mybrotherskeeper'
p2139
I2151
sS'loved'
p2140
I2152
sS'colleagues'
p2141
I2153
sS'ben'
p2142
I2154
sS'breadwinners'
p2143
I2155
sS'patients'
p2144
I2156
sS'arc'
p2145
I2157
sS'gays'
p2146
I2158
sS'providing'
p2147
I2159
sS'spurs'
p2148
I2160
sS'tonight'
p2149
I2161
sS'tom'
p2150
I1571
sS'have'
p2151
I2162
sS'sen'
p2152
I2163
sS'need'
p2153
I2164
sS'flotus'
p2154
I2165
sS'whatwillittake'
p2155
I2166
sS'able'
p2156
I2167
sS'parks'
p2157
I2168
sS'which'
p2158
I2169
sS'trivia'
p2159
I2170
sS'therealromney'
p2160
I2171
sS'toughest'
p2161
I2172
sS'unless'
p2162
I544
sS'sinegal'
p2163
I546
sS'kingjames'
p2164
I2175
sS'who'
p2165
I2176
sS'sc'
p2166
I2177
sS'eight'
p2167
I2178
sS'medal'
p2168
I2179
sS'why'
p2169
I2180
sS'discourage'
p2170
I613
sS'volunteers'
p2171
I2055
sS'placement'
p2172
I2182
sS'stronger'
p2173
I2183
sS'face'
p2174
I2184
sS'fact'
p2175
I2185
sS'violation'
p2176
I2186
sS'text'
p2177
I2187
sS'supported'
p2178
I2188
sS'homeowner'
p2179
I694
sS'bring'
p2180
I2190
sS'planning'
p2181
I2191
sS'democrats'
p2182
I2192
sS'debate'
p2183
I2193
sS'decade'
p2184
I2194
sS'stamped'
p2185
I2195
sS'trying'
p2186
I1181
sS'based'
p2187
I2197
sS'earned'
p2188
I747
sS'actonreform'
p2189
I2199
sS'colbert'
p2190
I2200
sS'controls'
p2191
I2201
sS'should'
p2192
I2202
sS'jan'
p2193
I2203
sS'score'
p2194
I376
sS'candidates'
p2195
I2204
sS'thousands'
p2196
I1209
sS'hope'
p2197
I2206
sS'watching'
p2198
I2207
sS'crumbling'
p2199
I2208
sS'wishing'
p2200
I2209
sS'michigan'
p2201
I2210
sS'background'
p2202
I520
sS'october'
p2203
I2211
sS'words'
p2204
I2212
sS'webcast'
p2205
I2213
sS'entity'
p2206
I2214
sS'thrives'
p2207
I2215
sS'campus'
p2208
I2475
sS'littlest'
p2209
I2216
sS'ended'
p2210
I1234
sS'h'
p2211
I2218
sS'married'
p2212
I2219
sS'taxes'
p2213
I2220
sS'calling'
p2214
I2221
sS'reid'
p2215
I2222
sS'extremists'
p2216
I2223
sS'she'
p2217
I2224
sS'wish'
p2218
I2455
sS'ohio'
p2219
I2226
sS'rein'
p2220
I905
sS'generations'
p2221
I2228
sS'view'
p2222
I2229
sS'buzzer'
p2223
I2230
sS'available'
p2224
I2231
sS'requirement'
p2225
I2232
sS'prayers'
p2226
I1120
sS'national'
p2227
I2234
sS'pitch'
p2228
I2235
sS'immigrant'
p2229
I2236
sS'officials'
p2230
I1933
sS'forgo'
p2231
I2238
sS'closer'
p2232
I2239
sS'walking'
p2233
I995
sS'destiny'
p2234
I985
sS'reform'
p2235
I2241
sS'middletown'
p2236
I515
sS'partisan'
p2237
I2243
sS'favor'
p2238
I2244
sS'state'
p2239
I2245
sS'nuclear'
p2240
I2242
sS'sabotage'
p2241
I2247
sS'email'
p2242
I2248
sS'ends'
p2243
I2249
sS'ability'
p2244
I2250
sS'importance'
p2245
I2251
sS'deliver'
p2246
I2252
sS'job'
p2247
I2253
sS'joe'
p2248
I2254
sS'key'
p2249
I1069
sS'abbywambach'
p2250
I2256
sS'problem'
p2251
I2463
sS'declining'
p2252
I2258
sS'<end>'
p2253
I2259
sS'limits'
p2254
I2260
sS'career'
p2255
I2261
sS'tovah'
p2256
I902
sS'taking'
p2257
I2263
sS'deficits'
p2258
I61
sS'ranked'
p2259
I2265
sS'strengthens'
p2260
I2466
sS'passing'
p2261
I2266
sS'glorious'
p2262
I2267
sS'wear'
p2263
I2268
sS'co'
p2264
I1146
sS'wall'
p2265
I2270
sS'ca'
p2266
I2271
sS'<beg>'
p2267
I2272
sS'walk'
p2268
I2273
sS'commend'
p2269
I2274
sS'carbon'
p2270
I2275
sS'table'
p2271
I2276
sS'labor'
p2272
I2277
sS'citizenship'
p2273
I851
sS'loveislove'
p2274
I2279
sS'decent'
p2275
I1191
sS'rhode'
p2276
I2281
sS'willing'
p2277
I2282
sS'treat'
p2278
I2283
sS'climatechangeisreal'
p2279
I1238
sS'kitchen'
p2280
I2285
sS'louisiana'
p2281
I2286
sS'killed'
p2282
I2360
sS'climate'
p2283
I2288
sS'sales'
p2284
I2289
sS'finished'
p2285
I2290
sS'ensuring'
p2286
I2291
sS'mail'
p2287
I2292
sS'kicks'
p2288
I2293
sS'improved'
p2289
I1691
sS'general'
p2290
I2287
sS'mourning'
p2291
I2296
sS'homes'
p2292
I2297
sS'criminal'
p2293
I2298
sS'plain'
p2294
I2299
sS'means'
p2295
I2300
sS'nd'
p2296
I2301
sS'appearance'
p2297
I2102
sS'choices'
p2298
I2303
sS'will'
p2299
I2304
sS'petition'
p2300
I2305
sS've'
p2301
I2306
sS'almost'
p2302
I2307
sS'helped'
p2303
I1410
sS'optimistic'
p2304
I355
sS'lifetime'
p2305
I2311
sS'hearted'
p2306
I2312
sS'partner'
p2307
I2313
sS'sits'
p2308
I2314
sS'denial'
p2309
I847
sS'views'
p2310
I2316
sS'administration'
p2311
I2317
sS'cross'
p2312
I2318
sS'unite'
p2313
I2319
sS'jobsnotcuts'
p2314
I2320
sS'member'
p2315
I2321
sS'unity'
p2316
I2322
sS'largest'
p2317
I2323
sS'party'
p2318
I2324
sS'terrorism'
p2319
I2325
sS'gets'
p2320
I2326
sS'powell'
p2321
I2327
sS'difficult'
p2322
I2328
sS'ball'
p2323
I2329
sS'columbia'
p2324
I2330
sS'premiere'
p2325
I2331
sS'disagree'
p2326
I2332
sS'effect'
p2327
I2333
sS'student'
p2328
I2334
sS'fierce'
p2329
I2335
sS'warming'
p2330
I2336
sS'chattanooga'
p2331
I1572
sS'ofa'
p2332
I2338
sS'off'
p2333
I2339
sS'i'
p2334
I2340
sS'weapon'
p2335
I2341
sS'well'
p2336
I2342
sS'fighting'
p2337
I2343
sS'thought'
p2338
I2344
sS'sets'
p2339
I2345
sS'restore'
p2340
I2346
sS'newest'
p2341
I1628
sS'less'
p2342
I2348
sS'moments'
p2343
I2349
sS'executive'
p2344
I343
sS'arriving'
p2345
I2104
sS'batteries'
p2346
I2352
sS'casper'
p2347
I2353
sS'protecting'
p2348
I2354
sS'paul'
p2349
I2355
sS'happiness'
p2350
I2356
sS'ads'
p2351
I2357
sS'field'
p2352
I2358
sS'lake'
p2353
I2359
sS'day'
p2354
I2083
sS'simple'
p2355
I2361
sS'add'
p2356
I2362
sS'preschool'
p2357
I2363
sS'citizen'
p2358
I2364
sS'unprecedented'
p2359
I2365
sS'ought'
p2360
I2366
sS'increased'
p2361
I2367
sS'government'
p2362
I2368
sS'checking'
p2363
I2369
sS'historic'
p2364
I2370
sS'five'
p2365
I2371
sS'whatever'
p2366
I1722
sS'press'
p2367
I2373
sS'immediately'
p2368
I2374
sS'necessary'
p2369
I2375
sS'like'
p2370
I2376
sS'inviting'
p2371
I1208
sS'miami'
p2372
I2378
sS'taping'
p2373
I2379
sS'lose'
p2374
I2381
sS'hosts'
p2375
I2380
sS'james'
p2376
I876
sS'become'
p2377
I2382
sS'works'
p2378
I2383
sS'page'
p2379
I2384
sS'surest'
p2380
I169
sS'because'
p2381
I2386
sS'twitter'
p2382
I2387
sS'visions'
p2383
I2415
sS'growth'
p2384
I1880
sS'choosing'
p2385
I2389
sS'home'
p2386
I2390
sS'employment'
p2387
I1892
sS'march'
p2388
I1795
sS'happens'
p2389
I2392
sS'est'
p2390
I2393
sS'lead'
p2391
I2394
sS'severance'
p2392
I2395
sS'mourdock'
p2393
I2396
sS'literally'
p2394
I2397
sS'stephenathome'
p2395
I1927
sS'rewarding'
p2396
I2399
sS'does'
p2397
I2400
sS'keystone'
p2398
I2401
sS'leader'
p2399
I2402
sS'speakerboehner'
p2400
I2403
sS'deciding'
p2401
I2404
sS'repblumenauer'
p2402
I2405
sS'apostolic'
p2403
I2406
sS'mitt'
p2404
I2407
sS'expansion'
p2405
I2408
sS'host'
p2406
I2409
sS'worthy'
p2407
I2410
sS'loans'
p2408
I2411
sS'raise'
p2409
I2412
sS'gwenstefani'
p2410
I2003
sS'sister'
p2411
I2007
sS'dontwait'
p2412
I2013
sS'getting'
p2413
I2416
sS'iamkidpresident'
p2414
I2417
sS'freedom'
p2415
I2418
sS'dependence'
p2416
I2419
sS'recognized'
p2417
I1764
sS'statement'
p2418
I1569
sS'clooney'
p2419
I2422
sS'introduced'
p2420
I2423
sS'equally'
p2421
I2424
sS'own'
p2422
I2425
sS'letters'
p2423
I2426
sS'previously'
p2424
I2069
sS'washington'
p2425
I2428
sS'commitment'
p2426
I2429
sS'billions'
p2427
I2430
sS'promise'
p2428
I2431
sS'registration'
p2429
I2432
sS'roads'
p2430
I2433
sS'repeal'
p2431
I2494
sS'getcovered'
p2432
I2434
sS'firefighter'
p2433
I2435
sS'overtime'
p2434
I2436
sS'describes'
p2435
I2437
sS'biggest'
p2436
I2438
sS'kwanzaa'
p2437
I2439
sS'fiscal'
p2438
I2440
sS'appointing'
p2439
I2441
sS'north'
p2440
I2442
sS'brand'
p2441
I2443
sS'stories'
p2442
I2461
sS'but'
p2443
I2444
sS'delivery'
p2444
I2445
sS'reminds'
p2445
I2446
sS'construction'
p2446
I2447
sS'ear'
p2447
I550
sS'he'
p2448
I2449
sS'count'
p2449
I2450
sS'challenges'
p2450
I2451
sS'made'
p2451
I2452
sS'tactics'
p2452
I2453
sS'whether'
p2453
I2454
sS'dangerous'
p2454
I2225
sS'official'
p2455
I2456
sS'grieve'
p2456
I2457
sS'signed'
p2457
I2458
sS'record'
p2458
I2459
sS'dinnerwithbarack'
p2459
I2460
sS'limit'
p2460
I1747
sS'arne'
p2461
I2006
sS'blessings'
p2462
I2421
sS'nominations'
p2463
I2257
sS'piece'
p2464
I2464
sS'minutes'
p2465
I2465
sS'chip'
p2466
I2000
sS'firm'
p2467
I2467
sS'marketplace'
p2468
I1232
sS'deaths'
p2469
I2469
sS'universal'
p2470
I2470
sS'measure'
p2471
I2096
sS'romney'
p2472
I2471
sS'pie'
p2473
I2472
sS'goodness'
p2474
I2473
sS'education'
p2475
I2315
sS'girl'
p2476
I887
sS'percent'
p2477
I2476
sS'illinois'
p2478
I2477
sS'other'
p2479
I2478
sS'sick'
p2480
I2479
sS'welcomes'
p2481
I2480
sS'er'
p2482
I2481
sS'expel'
p2483
I2233
sS'repeat'
p2484
I831
sS'star'
p2485
I2483
sS'respected'
p2486
I2484
sS'demandaction'
p2487
I2485
sS'oppression'
p2488
I2398
sS'dismantle'
p2489
I2487
sS'stay'
p2490
I2488
sS'margaret'
p2491
I2489
sS'chance'
p2492
I2490
sS'mlkdream'
p2493
I2491
sS'backstage'
p2494
I2492
sS'ceos'
p2495
I2493
sS'else'
p2496
I1720
sS'friends'
p2497
I2495
sS'contraceptive'
p2498
I2496
sS'rule'
p2499
I2497
sS'hikes'
p2500
I2499
sS'understand'
p2501
I2500
sS'commencement'
p2502
I2498
s.