(dp0
I0
S'trenton'
p1
sI1
S'msgs'
p2
sI2
S'colleges'
p3
sI3
S'four'
p4
sI4
S'controversial'
p5
sI5
S'hanging'
p6
sI6
S'oldest'
p7
sI7
S'saved'
p8
sI8
S'romneysbinders'
p9
sI9
S'forget'
p10
sI10
S'looking'
p11
sI11
S'voter'
p12
sI12
S'electricity'
p13
sI13
S'tweet'
p14
sI14
S'presents'
p15
sI15
S'voted'
p16
sI16
S'under'
p17
sI17
S'slowest'
p18
sI18
S'pride'
p19
sI19
S'onstage'
p20
sI20
S'worth'
p21
sI21
S'legislators'
p22
sI22
S'rescue'
p23
sI23
S'compassion'
p24
sI24
S'void'
p25
sI25
S'rise'
p26
sI26
S'every'
p27
sI27
S'updates'
p28
sI28
S'reforms'
p29
sI29
S'uncertain'
p30
sI30
S'bringing'
p31
sI31
S'vast'
p32
sI32
S'tickets'
p33
sI33
S'school'
p34
sI34
S'skills'
p35
sI35
S'pinch'
p36
sI36
S'companies'
p37
sI37
S'solution'
p38
sI38
S'mlkday'
p39
sI39
S'red'
p40
sI40
S'straight'
p41
sI41
S'confidence'
p42
sI42
S'enjoy'
p43
sI43
S'charter'
p44
sI44
S'leaders'
p45
sI45
S'welfare'
p46
sI46
S'direct'
p47
sI47
S'elections'
p48
sI48
S'across'
p49
sI49
S'likely'
p50
sI50
S'street'
p51
sI51
S'n'
p52
sI52
S'shining'
p53
sI53
S'even'
p54
sI54
S'pace'
p55
sI55
S'solemn'
p56
sI56
S'religious'
p57
sI57
S'commemorating'
p58
sI58
S'weren'
p59
sI59
S'liberty'
p60
sI60
S'victims'
p61
sI61
S'deficits'
p62
sI62
S'above'
p63
sI63
S'beater'
p64
sI64
S'new'
p65
sI65
S'ever'
p66
sI66
S'memorialday'
p67
sI67
S'hero'
p68
sI68
S'zach'
p69
sI69
S'whose'
p70
sI70
S'men'
p71
sI71
S'here'
p72
sI72
S'hundreds'
p73
sI73
S'met'
p74
sI74
S'china'
p75
sI75
S'active'
p76
sI76
S'path'
p77
sI77
S'kids'
p78
sI78
S'daughter'
p79
sI79
S'forum'
p80
sI80
S'flooding'
p81
sI81
S'study'
p82
sI82
S'economics'
p83
sI83
S'ignoring'
p84
sI84
S'credit'
p85
sI85
S'military'
p86
sI86
S'changes'
p87
sI87
S'punishment'
p88
sI88
S'golden'
p89
sI89
S'secure'
p90
sI90
S'campaign'
p91
sI91
S'mobility'
p92
sI92
S'fireworks'
p93
sI93
S'reagan'
p94
sI94
S'brought'
p95
sI95
S'doyourjob'
p96
sI96
S'thedemocrats'
p97
sI97
S'moral'
p98
sI98
S'opportunities'
p99
sI99
S'txt'
p100
sI100
S'spoke'
p101
sI101
S'would'
p102
sI102
S'army'
p103
sI103
S'hospital'
p104
sI104
S'voters'
p105
sI105
S'call'
p106
sI106
S'tell'
p107
sI107
S'supporters'
p108
sI108
S'successful'
p109
sI109
S'benefiting'
p110
sI110
S'wars'
p111
sI111
S'adult'
p112
sI112
S'prescription'
p113
sI113
S'hold'
p114
sI114
S'striving'
p115
sI115
S'blocking'
p116
sI116
S'must'
p117
sI117
S'me'
p118
sI118
S'join'
p119
sI119
S'room'
p120
sI120
S'rights'
p121
sI121
S'pursue'
p122
sI122
S'work'
p123
sI123
S'refusing'
p124
sI124
S'roof'
p125
sI125
S'temperatures'
p126
sI126
S'my'
p127
sI127
S'example'
p128
sI128
S'give'
p129
sI129
S'unjust'
p130
sI130
S'reviewing'
p131
sI131
S'want'
p132
sI132
S'counseling'
p133
sI133
S'organizer'
p134
sI134
S'keep'
p135
sI135
S'attract'
p136
sI136
S'guarantee'
p137
sI137
S'end'
p138
sI138
S'recovery'
p139
sI139
S'turn'
p140
sI140
S'provide'
p141
sI141
S'travel'
p142
sI142
S'damage'
p143
sI143
S'machine'
p144
sI144
S'how'
p145
sI145
S'amazing'
p146
sI146
S'writers'
p147
sI147
S'ordinary'
p148
sI148
S'charging'
p149
sI149
S'offshore'
p150
sI150
S'pizza'
p151
sI151
S'beauty'
p152
sI152
S'transforming'
p153
sI153
S'after'
p154
sI154
S'wrong'
p155
sI155
S'lay'
p156
sI156
S'president'
p157
sI157
S'law'
p158
sI158
S'effective'
p159
sI159
S'wins'
p160
sI160
S'homeowners'
p161
sI161
S'appreciate'
p162
sI162
S'think'
p163
sI163
S'green'
p164
sI164
S'enter'
p165
sI165
S'uninsured'
p166
sI166
S'preventive'
p167
sI167
S'wing'
p168
sI168
S'senators'
p169
sI169
S'surest'
p170
sI170
S'office'
p171
sI171
S'deck'
p172
sI172
S'over'
p173
sI173
S'rewarded'
p174
sI174
S'before'
p175
sI175
S'fads'
p176
sI176
S'fit'
p177
sI177
S'lifeline'
p178
sI178
S'polluters'
p179
sI179
S'fix'
p180
sI180
S'saddleback'
p181
sI181
S'writing'
p182
sI182
S'better'
p183
sI183
S'stalemate'
p184
sI184
S'weeks'
p185
sI185
S'easier'
p186
sI186
S'overcome'
p187
sI187
S'then'
p188
sI188
S'them'
p189
sI189
S'iowa'
p190
sI190
S'prevented'
p191
sI191
S'unemployed'
p192
sI192
S'safe'
p193
sI193
S'birth'
p194
sI194
S'break'
p195
sI195
S'heaven'
p196
sI196
S'they'
p197
sI197
S'yourself'
p198
sI198
S'bank'
p199
sI199
S'shadows'
p200
sI200
S'explode'
p201
sI201
S'stimulus'
p202
sI202
S'victory'
p203
sI203
S'reasonable'
p204
sI204
S'farenthold'
p205
sI205
S'meal'
p206
sI206
S'mean'
p207
sI207
S'consolidate'
p208
sI208
S'sciencesaysso'
p209
sI209
S'financial'
p210
sI210
S'concord'
p211
sI211
S'series'
p212
sI212
S'mandates'
p213
sI213
S'january'
p214
sI214
S'celebrating'
p215
sI215
S'trading'
p216
sI216
S'hosted'
p217
sI217
S'navy'
p218
sI218
S'aids'
p219
sI219
S'saturday'
p220
sI220
S'rt'
p221
sI221
S'reminding'
p222
sI222
S'driving'
p223
sI223
S'oprah'
p224
sI224
S'god'
p225
sI225
S'cameras'
p226
sI226
S'crucial'
p227
sI227
S'george'
p228
sI228
S'rd'
p229
sI229
S're'
p230
sI230
S'laid'
p231
sI231
S'banning'
p232
sI232
S'got'
p233
sI233
S'gov'
p234
sI234
S'gop'
p235
sI235
S'independence'
p236
sI236
S'arizona'
p237
sI237
S'turning'
p238
sI238
S'little'
p239
sI239
S'free'
p240
sI240
S'standard'
p241
sI241
S'campaigns'
p242
sI242
S'appointments'
p243
sI243
S'immigrationreform'
p244
sI244
S'boosting'
p245
sI245
S'checked'
p246
sI246
S'wanted'
p247
sI247
S'knit'
p248
sI248
S'certified'
p249
sI249
S'created'
p250
sI250
S'starts'
p251
sI251
S'madeinamerica'
p252
sI252
S'days'
p253
sI253
S'priorities'
p254
sI254
S'heading'
p255
sI255
S'renew'
p256
sI256
S'isn'
p257
sI257
S'arrived'
p258
sI258
S'methane'
p259
sI259
S'already'
p260
sI260
S'economists'
p261
sI261
S'encouraging'
p262
sI262
S'hearing'
p263
sI263
S'another'
p264
sI264
S'olds'
p265
sI265
S'service'
p266
sI266
S'top'
p267
sI267
S'recruiting'
p268
sI268
S'carry'
p269
sI269
S'needed'
p270
sI270
S'rates'
p271
sI271
S'too'
p272
sI272
S'livelihoods'
p273
sI273
S'purposefully'
p274
sI274
S'john'
p275
sI275
S'filibuster'
p276
sI276
S'guidelines'
p277
sI277
S'grandchildren'
p278
sI278
S'janellemonae'
p279
sI279
S'serve'
p280
sI280
S'took'
p281
sI281
S'deval'
p282
sI282
S'positively'
p283
sI283
S'showed'
p284
sI284
S'nominate'
p285
sI285
S'immigrants'
p286
sI286
S'second'
p287
sI287
S'binds'
p288
sI288
S'speaking'
p289
sI289
S'historical'
p290
sI290
S'feeling'
p291
sI291
S'boston'
p292
sI292
S'mind'
p293
sI293
S'talking'
p294
sI294
S'childcare'
p295
sI295
S'seen'
p296
sI296
S'botswana'
p297
sI297
S'strength'
p298
sI298
S'genuine'
p299
sI299
S'convenient'
p300
sI300
S'responsible'
p301
sI301
S'recommended'
p302
sI302
S'luxury'
p303
sI303
S'doors'
p304
sI304
S'greatest'
p305
sI305
S'takeittothehouse'
p306
sI306
S'citizens'
p307
sI307
S'bruce'
p308
sI308
S'simplify'
p309
sI309
S'mouth'
p310
sI310
S'letter'
p311
sI311
S'claims'
p312
sI312
S'retaining'
p313
sI313
S'inexcusable'
p314
sI314
S'don'
p315
sI315
S'richard'
p316
sI316
S'devastating'
p317
sI317
S'm'
p318
sI318
S'dog'
p319
sI319
S'investments'
p320
sI320
S'storm'
p321
sI321
S'principle'
p322
sI322
S'voting'
p323
sI323
S'consumer'
p324
sI324
S'constance'
p325
sI325
S'came'
p326
sI326
S'saying'
p327
sI327
S'inspire'
p328
sI328
S'retire'
p329
sI329
S'ending'
p330
sI330
S'attempts'
p331
sI331
S'earth'
p332
sI332
S'whitehouse'
p333
sI333
S'thirds'
p334
sI334
S'judges'
p335
sI335
S'dampening'
p336
sI336
S'dosomething'
p337
sI337
S'bush'
p338
sI338
S'deepest'
p339
sI339
S'rich'
p340
sI340
S'folks'
p341
sI341
S'announce'
p342
sI342
S'warmest'
p343
sI343
S'executive'
p344
sI344
S'do'
p345
sI345
S'watch'
p346
sI346
S'dc'
p347
sI347
S'coast'
p348
sI348
S'pocket'
p349
sI349
S'spirit'
p350
sI350
S'despite'
p351
sI351
S'report'
p352
sI352
S'haiti'
p353
sI353
S'dr'
p354
sI354
S'proposes'
p355
sI355
S'optimistic'
p356
sI356
S'abetterbargain'
p357
sI357
S'bad'
p358
sI358
S'kippur'
p359
sI359
S'ban'
p360
sI360
S'told'
p361
sI361
S'secretary'
p362
sI362
S'respond'
p363
sI363
S'disaster'
p364
sI364
S'fair'
p365
sI365
S'testing'
p366
sI366
S'voxdotcom'
p367
sI367
S'depends'
p368
sI368
S'decided'
p369
sI369
S'result'
p370
sI370
S'best'
p371
sI371
S'pete'
p372
sI372
S'said'
p373
sI373
S'narrated'
p374
sI374
S'away'
p375
sI375
S'continually'
p376
sI376
S'score'
p377
sI377
S'chili'
p378
sI378
S'side'
p379
sI379
S'preserve'
p380
sI380
S'we'
p381
sI381
S'never'
p382
sI382
S'terms'
p383
sI383
S'wears'
p384
sI384
S'nationwide'
p385
sI385
S'personalize'
p386
sI386
S'wi'
p387
sI387
S'wh'
p388
sI388
S'ramps'
p389
sI389
S'news'
p390
sI390
S'debt'
p391
sI391
S'wy'
p392
sI392
S'improve'
p393
sI393
S'protect'
p394
sI394
S'lgbt'
p395
sI395
S'country'
p396
sI396
S'uncertainty'
p397
sI397
S'flyers'
p398
sI398
S'against'
p399
sI399
S'players'
p400
sI400
S'games'
p401
sI401
S'planned'
p402
sI402
S'asked'
p403
sI403
S'pre'
p404
sI404
S'tough'
p405
sI405
S'itsonus'
p406
sI406
S'had'
p407
sI407
S'hardworking'
p408
sI408
S'epidemic'
p409
sI409
S'loaded'
p410
sI410
S'trust'
p411
sI411
S'speak'
p412
sI412
S'conference'
p413
sI413
S'iraq'
p414
sI414
S'mobilization'
p415
sI415
S'union'
p416
sI416
S'buffett'
p417
sI417
S'three'
p418
sI418
S'been'
p419
sI419
S'quickly'
p420
sI420
S'much'
p421
sI421
S'livethewage'
p422
sI422
S'interest'
p423
sI423
S'basic'
p424
sI424
S'privilege'
p425
sI425
S'entered'
p426
sI426
S'life'
p427
sI427
S'families'
p428
sI428
S'drugs'
p429
sI429
S'republicans'
p430
sI430
S'worker'
p431
sI431
S'lift'
p432
sI432
S'child'
p433
sI433
S'catch'
p434
sI434
S'worked'
p435
sI435
S'applied'
p436
sI436
S'has'
p437
sI437
S'leveling'
p438
sI438
S'economies'
p439
sI439
S'air'
p440
sI440
S'near'
p441
sI441
S'ain'
p442
sI442
S'teachers'
p443
sI443
S'aid'
p444
sI444
S'voice'
p445
sI445
S'davenport'
p446
sI446
S'launched'
p447
sI447
S'seven'
p448
sI448
S'changed'
p449
sI449
S'mexico'
p450
sI450
S'sticker'
p451
sI451
S'it'
p452
sI452
S'il'
p453
sI453
S'in'
p454
sI454
S'ia'
p455
sI455
S'campaigning'
p456
sI456
S'controversy'
p457
sI457
S'specter'
p458
sI458
S'trusted'
p459
sI459
S'if'
p460
sI460
S'memorial'
p461
sI461
S'things'
p462
sI462
S'make'
p463
sI463
S'amman'
p464
sI464
S'sidelines'
p465
sI465
S'grows'
p466
sI466
S'fairly'
p467
sI467
S'commonsense'
p468
sI468
S'pick'
p469
sI469
S'workforce'
p470
sI470
S'lyndon'
p471
sI471
S'greeted'
p472
sI472
S'marched'
p473
sI473
S'groundbreaking'
p474
sI474
S'protected'
p475
sI475
S'opportunity'
p476
sI476
S'tune'
p477
sI477
S'kid'
p478
sI478
S'vermont'
p479
sI479
S'kept'
p480
sI480
S'programs'
p481
sI481
S'failing'
p482
sI482
S'suffering'
p483
sI483
S'academic'
p484
sI484
S'dallasmemorial'
p485
sI485
S'mother'
p486
sI486
S'dadt'
p487
sI487
S'the'
p488
sI488
S'corporate'
p489
sI489
S'yours'
p490
sI490
S'left'
p491
sI491
S'seasonal'
p492
sI492
S'spurred'
p493
sI493
S'capitol'
p494
sI494
S'just'
p495
sI495
S'unemployment'
p496
sI496
S'photo'
p497
sI497
S'sporting'
p498
sI498
S'ideas'
p499
sI499
S'kinko'
p500
sI500
S'thanks'
p501
sI501
S'facts'
p502
sI502
S'yet'
p503
sI503
S'candidate'
p504
sI504
S'photographer'
p505
sI505
S'josh'
p506
sI506
S'spread'
p507
sI507
S'brainstorming'
p508
sI508
S'easy'
p509
sI509
S'prison'
p510
sI510
S'save'
p511
sI511
S'hat'
p512
sI512
S'humanity'
p513
sI513
S'gave'
p514
sI514
S'middletown'
p515
sI515
S'maya'
p516
sI516
S'breaks'
p517
sI517
S'possible'
p518
sI518
S'possibly'
p519
sI519
S'background'
p520
sI520
S'judge'
p521
sI521
S'shadow'
p522
sI522
S'poses'
p523
sI523
S'd'
p524
sI524
S'dignity'
p525
sI525
S'orlando'
p526
sI526
S'arrivals'
p527
sI527
S'specific'
p528
sI528
S'remind'
p529
sI529
S'ninety'
p530
sI530
S'steps'
p531
sI531
S'night'
p532
sI532
S'security'
p533
sI533
S'matchup'
p534
sI534
S'towards'
p535
sI535
S'attorney'
p536
sI536
S'right'
p537
sI537
S'honored'
p538
sI538
S'crowd'
p539
sI539
S'people'
p540
sI540
S'cybersecurity'
p541
sI541
S'intern'
p542
sI542
S'election'
p543
sI543
S'unless'
p544
sI544
S'total'
p545
sI545
S'sinegal'
p546
sI546
S'for'
p547
sI547
S'bottom'
p548
sI548
S'saramvalentine'
p549
sI549
S'ear'
p550
sI550
S'fox'
p551
sI551
S'cordray'
p552
sI552
S'everything'
p553
sI553
S'asking'
p554
sI554
S'denied'
p555
sI555
S'cnn'
p556
sI556
S'christmas'
p557
sI557
S'itgetsbetter'
p558
sI558
S'strongerwithobama'
p559
sI559
S'columbus'
p560
sI560
S'bold'
p561
sI561
S'pose'
p562
sI562
S'graduates'
p563
sI563
S'binder'
p564
sI564
S'losing'
p565
sI565
S'post'
p566
sI566
S'manufacturing'
p567
sI567
S'super'
p568
sI568
S'chapter'
p569
sI569
S'chilean'
p570
sI570
S'dunking'
p571
sI571
S'dnc'
p572
sI572
S'attacks'
p573
sI573
S'dollars'
p574
sI574
S'months'
p575
sI575
S'donation'
p576
sI576
S'o'
p577
sI577
S'undocumented'
p578
sI578
S'dinner'
p579
sI579
S'ensure'
p580
sI580
S'commit'
p581
sI581
S'efforts'
p582
sI582
S'raised'
p583
sI583
S'presence'
p584
sI584
S'civil'
p585
sI585
S'pays'
p586
sI586
S'down'
p587
sI587
S'thankful'
p588
sI588
S'magazines'
p589
sI589
S'old'
p590
sI590
S'east'
p591
sI591
S'deal'
p592
sI592
S'support'
p593
sI593
S'wad'
p594
sI594
S'legislation'
p595
sI595
S'approximate'
p596
sI596
S'fight'
p597
sI597
S'fought'
p598
sI598
S'way'
p599
sI599
S'was'
p600
sI600
S'war'
p601
sI601
S'launching'
p602
sI602
S'happy'
p603
sI603
S'lowest'
p604
sI604
S'head'
p605
sI605
S'offering'
p606
sI606
S'offer'
p607
sI607
S'happen'
p608
sI608
S'becoming'
p609
sI609
S'differences'
p610
sI610
S'removes'
p611
sI611
S'discourage'
p612
sI612
S'heat'
p613
sI613
S'hear'
p614
sI614
S'true'
p615
sI615
S'fort'
p616
sI616
S'congratulations'
p617
sI617
S'humbled'
p618
sI618
S'lovewins'
p619
sI619
S'reproductive'
p620
sI620
S'urgent'
p621
sI621
S'until'
p622
sI622
S'tucson'
p623
sI623
S'lays'
p624
sI624
S'rehire'
p625
sI625
S'fulfills'
p626
sI626
S'promises'
p627
sI627
S'proved'
p628
sI628
S'medicaid'
p629
sI629
S'covers'
p630
sI630
S'ferrell'
p631
sI631
S'sometime'
p632
sI632
S'exist'
p633
sI633
S'promised'
p634
sI634
S'shines'
p635
sI635
S'check'
p636
sI636
S'nh'
p637
sI637
S'nj'
p638
sI638
S'pledging'
p639
sI639
S'floor'
p640
sI640
S'daca'
p641
sI641
S'nc'
p642
sI642
S'when'
p643
sI643
S'ofafallsummit'
p644
sI644
S'setting'
p645
sI645
S'role'
p646
sI646
S'holding'
p647
sI647
S'digital'
p648
sI648
S'roll'
p649
sI649
S'garland'
p650
sI650
S'welcome'
p651
sI651
S'update'
p652
sI652
S'phony'
p653
sI653
S'parenthood'
p654
sI654
S'invested'
p655
sI655
S'weekend'
p656
sI656
S'died'
p657
sI657
S'billion'
p658
sI658
S'happening'
p659
sI659
S'together'
p660
sI660
S'premiums'
p661
sI661
S'reception'
p662
sI662
S'time'
p663
sI663
S'push'
p664
sI664
S'serious'
p665
sI665
S'backward'
p666
sI666
S'profits'
p667
sI667
S'equalizer'
p668
sI668
S'corps'
p669
sI669
S'diplomacy'
p670
sI670
S'dance'
p671
sI671
S'global'
p672
sI672
S'focus'
p673
sI673
S'hawaii'
p674
sI674
S'leads'
p675
sI675
S'grateful'
p676
sI676
S'vet'
p677
sI677
S'obamacare'
p678
sI678
S'environment'
p679
sI679
S'answered'
p680
sI680
S'finally'
p681
sI681
S'sotu'
p682
sI682
S'marks'
p683
sI683
S'veterans'
p684
sI684
S'retro'
p685
sI685
S'brown'
p686
sI686
S'paychecks'
p687
sI687
S'none'
p688
sI688
S'congratulating'
p689
sI689
S'choice'
p690
sI690
S'lynch'
p691
sI691
S'ma'
p692
sI692
S'homeowner'
p693
sI693
S'minute'
p694
sI694
S'dim'
p695
sI695
S'solves'
p696
sI696
S'did'
p697
sI697
S'die'
p698
sI698
S'dig'
p699
sI699
S'proposals'
p700
sI700
S'gun'
p701
sI701
S'skewed'
p702
sI702
S'magnet'
p703
sI703
S'p'
p704
sI704
S'thanksgivukkah'
p705
sI705
S'team'
p706
sI706
S'affordablecare'
p707
sI707
S'round'
p708
sI708
S'shave'
p709
sI709
S'prevent'
p710
sI710
S'brave'
p711
sI711
S'says'
p712
sI712
S'strickland'
p713
sI713
S'pregnancies'
p714
sI714
S'sign'
p715
sI715
S'romnesia'
p716
sI716
S'cost'
p717
sI717
S'patient'
p718
sI718
S'educate'
p719
sI719
S'adds'
p720
sI720
S'constitution'
p721
sI721
S'shares'
p722
sI722
S'uniform'
p723
sI723
S'immigrationaction'
p724
sI724
S'reply'
p725
sI725
S'celebrates'
p726
sI726
S'filled'
p727
sI727
S'supporting'
p728
sI728
S'davidvitter'
p729
sI729
S'marchforinnov'
p730
sI730
S'v'
p731
sI731
S'agreement'
p732
sI732
S'water'
p733
sI733
S'michelleobama'
p734
sI734
S'groups'
p735
sI735
S'address'
p736
sI736
S'alone'
p737
sI737
S'along'
p738
sI738
S'teacher'
p739
sI739
S'change'
p740
sI740
S'wait'
p741
sI741
S'sending'
p742
sI742
S'enroll'
p743
sI743
S'dec'
p744
sI744
S'healthy'
p745
sI745
S'earned'
p746
sI746
S'wherever'
p747
sI747
S'merrick'
p748
sI748
S'accomplished'
p749
sI749
S'boo'
p750
sI750
S'dcck'
p751
sI751
S'reclaim'
p752
sI752
S'love'
p753
sI753
S'mccormick'
p754
sI754
S'extra'
p755
sI755
S'bloody'
p756
sI756
S'keeper'
p757
sI757
S'flexibility'
p758
sI758
S'patriots'
p759
sI759
S'crisis'
p760
sI760
S'everybody'
p761
sI761
S'working'
p762
sI762
S'prove'
p763
sI763
S'visit'
p764
sI764
S'predictions'
p765
sI765
S'abroad'
p766
sI766
S'insider'
p767
sI767
S'live'
p768
sI768
S'memory'
p769
sI769
S'msg'
p770
sI770
S'today'
p771
sI771
S'plug'
p772
sI772
S'kerry'
p773
sI773
S'afford'
p774
sI774
S'effort'
p775
sI775
S'behalf'
p776
sI776
S'fly'
p777
sI777
S'rebounding'
p778
sI778
S'volunteering'
p779
sI779
S'car'
p780
sI780
S'rutherford'
p781
sI781
S'flu'
p782
sI782
S'believes'
p783
sI783
S'hardest'
p784
sI784
S'values'
p785
sI785
S'can'
p786
sI786
S'growing'
p787
sI787
S'making'
p788
sI788
S'thekidsneedtoknow'
p789
sI789
S'streak'
p790
sI790
S'spy'
p791
sI791
S'dedicated'
p792
sI792
S'valentines'
p793
sI793
S'figure'
p794
sI794
S'predict'
p795
sI795
S'awesome'
p796
sI796
S'millionaires'
p797
sI797
S'heard'
p798
sI798
S'<pad>'
p799
sI799
S'allowed'
p800
sI800
S'counting'
p801
sI801
S'pink'
p802
sI802
S'unwavering'
p803
sI803
S'bankrupt'
p804
sI804
S'secured'
p805
sI805
S'eloquent'
p806
sI806
S'giveaways'
p807
sI807
S'sunday'
p808
sI808
S'vital'
p809
sI809
S'fourth'
p810
sI810
S'speaks'
p811
sI811
S'sworn'
p812
sI812
S'pathway'
p813
sI813
S'springfield'
p814
sI814
S'economy'
p815
sI815
S'map'
p816
sI816
S'staying'
p817
sI817
S'huge'
p818
sI818
S'may'
p819
sI819
S'sacrifice'
p820
sI820
S'crashed'
p821
sI821
S'heartbreaking'
p822
sI822
S'birthday'
p823
sI823
S'designed'
p824
sI824
S'heroes'
p825
sI825
S'truly'
p826
sI826
S'guys'
p827
sI827
S'grow'
p828
sI828
S'repeat'
p829
sI829
S'man'
p830
sI830
S'classroom'
p831
sI831
S'remember'
p832
sI832
S'johnson'
p833
sI833
S'st'
p834
sI834
S'gap'
p835
sI835
S'so'
p836
sI836
S'african'
p837
sI837
S'marriageequality'
p838
sI838
S'tall'
p839
sI839
S'talk'
p840
sI840
S'typical'
p841
sI841
S'exclusive'
p842
sI842
S'jaylenotonight'
p843
sI843
S'midnight'
p844
sI844
S'denial'
p845
sI845
S'years'
p846
sI846
S'hiring'
p847
sI847
S'cuts'
p848
sI848
S'citizenship'
p849
sI849
S'cold'
p850
sI850
S'still'
p851
sI851
S'texan'
p852
sI852
S'thank'
p853
sI853
S'jim'
p854
sI854
S'tweets'
p855
sI855
S'ours'
p856
sI856
S'hanks'
p857
sI857
S'bipartisan'
p858
sI858
S'loophole'
p859
sI859
S'texas'
p860
sI860
S'civilian'
p861
sI861
S'moms'
p862
sI862
S'killer'
p863
sI863
S'nation'
p864
sI864
S'parkman'
p865
sI865
S'half'
p866
sI866
S'not'
p867
sI867
S'nov'
p868
sI868
S'now'
p869
sI869
S'hall'
p870
sI870
S'term'
p871
sI871
S'equality'
p872
sI872
S'name'
p873
sI873
S'james'
p874
sI874
S'didn'
p875
sI875
S'gamble'
p876
sI876
S'quarter'
p877
sI877
S'weighted'
p878
sI878
S'fired'
p879
sI879
S'ed'
p880
sI880
S'breakthrough'
p881
sI881
S'begun'
p882
sI882
S'year'
p883
sI883
S'et'
p884
sI884
S'girl'
p885
sI885
S'morning'
p886
sI886
S'tried'
p887
sI887
S'hcr'
p888
sI888
S'ernestmoniz'
p889
sI889
S'ultimately'
p890
sI890
S'increase'
p891
sI891
S'mess'
p892
sI892
S'imperative'
p893
sI893
S'internet'
p894
sI894
S'shows'
p895
sI895
S'earlier'
p896
sI896
S'theory'
p897
sI897
S'cars'
p898
sI898
S'million'
p899
sI899
S'grandma'
p900
sI900
S'obligation'
p901
sI901
S'rein'
p902
sI902
S'card'
p903
sI903
S'care'
p904
sI904
S'couldn'
p905
sI905
S'where'
p906
sI906
S'thing'
p907
sI907
S'plane'
p908
sI908
S'place'
p909
sI909
S'loretta'
p910
sI910
S'childhood'
p911
sI911
S'first'
p912
sI912
S'cheese'
p913
sI913
S'saving'
p914
sI914
S'xl'
p915
sI915
S'waves'
p916
sI916
S'one'
p917
sI917
S'americans'
p918
sI918
S'fast'
p919
sI919
S'directly'
p920
sI920
S'vote'
p921
sI921
S'corporations'
p922
sI922
S'message'
p923
sI923
S'open'
p924
sI924
S'tomorrow'
p925
sI925
S'discharged'
p926
sI926
S'millions'
p927
sI927
S'city'
p928
sI928
S'given'
p929
sI929
S'sheet'
p930
sI930
S'trillion'
p931
sI931
S'anyone'
p932
sI932
S'tragic'
p933
sI933
S'lobbyists'
p934
sI934
S'convention'
p935
sI935
S'white'
p936
sI936
S'friend'
p937
sI937
S'gives'
p938
sI938
S'eyes'
p939
sI939
S'that'
p940
sI940
S'season'
p941
sI941
S'cops'
p942
sI942
S'hartford'
p943
sI943
S'than'
p944
sI944
S'television'
p945
sI945
S'summary'
p946
sI946
S'future'
p947
sI947
S'were'
p948
sI948
S'cards'
p949
sI949
S'russia'
p950
sI950
S'and'
p951
sI951
S'addressing'
p952
sI952
S'san'
p953
sI953
S'petesessions'
p954
sI954
S'turned'
p955
sI955
S'voices'
p956
sI956
S'say'
p957
sI957
S'style'
p958
sI958
S'any'
p959
sI959
S'sat'
p960
sI960
S'giffords'
p961
sI961
S'prosperity'
p962
sI962
S'form'
p963
sI963
S'veteran'
p964
sI964
S'aside'
p965
sI965
S'take'
p966
sI966
S'online'
p967
sI967
S'performance'
p968
sI968
S'personalized'
p969
sI969
S'urge'
p970
sI970
S'sure'
p971
sI971
S'track'
p972
sI972
S'price'
p973
sI973
S'keeps'
p974
sI974
S'paid'
p975
sI975
S'mammograms'
p976
sI976
S'assault'
p977
sI977
S'printed'
p978
sI978
S'remarks'
p979
sI979
S'america'
p980
sI980
S'destiny'
p981
sI981
S'michelle'
p982
sI982
S'average'
p983
sI983
S'proud'
p984
sI984
S'steady'
p985
sI985
S'drive'
p986
sI986
S'order'
p987
sI987
S'ways'
p988
sI988
S'axe'
p989
sI989
S'laws'
p990
sI990
S'walking'
p991
sI991
S'shot'
p992
sI992
S'show'
p993
sI993
S'recipe'
p994
sI994
S'pump'
p995
sI995
S'ground'
p996
sI996
S'deportation'
p997
sI997
S'raisethewage'
p998
sI998
S'gulf'
p999
sI999
S'whcd'
p1000
sI1000
S'enough'
p1001
sI1001
S'crime'
p1002
sI1002
S'only'
p1003
sI1003
S'going'
p1004
sI1004
S'believing'
p1005
sI1005
S'nhlblackhawks'
p1006
sI1006
S'congressional'
p1007
sI1007
S'get'
p1008
sI1008
S'reps'
p1009
sI1009
S'employers'
p1010
sI1010
S'nearly'
p1011
sI1011
S'gen'
p1012
sI1012
S'is'
p1013
sI1013
S'builds'
p1014
sI1014
S'regarding'
p1015
sI1015
S'resource'
p1016
sI1016
S'repflores'
p1017
sI1017
S'joebiden'
p1018
sI1018
S'worried'
p1019
sI1019
S'asne'
p1020
sI1020
S'amanda'
p1021
sI1021
S'vision'
p1022
sI1022
S'ignored'
p1023
sI1023
S'seat'
p1024
sI1024
S'thisiswhy'
p1025
sI1025
S'elected'
p1026
sI1026
S'college'
p1027
sI1027
S'apologies'
p1028
sI1028
S'stanley'
p1029
sI1029
S'equalpay'
p1030
sI1030
S'madison'
p1031
sI1031
S'mortgage'
p1032
sI1032
S'federal'
p1033
sI1033
S'alarming'
p1034
sI1034
S'seekers'
p1035
sI1035
S'mth'
p1036
sI1036
S'weapons'
p1037
sI1037
S'behind'
p1038
sI1038
S'between'
p1039
sI1039
S'affecting'
p1040
sI1040
S'jobsnow'
p1041
sI1041
S'checks'
p1042
sI1042
S'caucus'
p1043
sI1043
S'affordable'
p1044
sI1044
S'notice'
p1045
sI1045
S'infrastructure'
p1046
sI1046
S'jobs'
p1047
sI1047
S'dome'
p1048
sI1048
S'blame'
p1049
sI1049
S'dhsgov'
p1050
sI1050
S'hurts'
p1051
sI1051
S'come'
p1052
sI1052
S'talented'
p1053
sI1053
S'many'
p1054
sI1054
S'region'
p1055
sI1055
S'called'
p1056
sI1056
S'enabling'
p1057
sI1057
S's'
p1058
sI1058
S'berry'
p1059
sI1059
S'highlights'
p1060
sI1060
S'senator'
p1061
sI1061
S'groundhog'
p1062
sI1062
S'comes'
p1063
sI1063
S'key'
p1064
sI1064
S'color'
p1065
sI1065
S'period'
p1066
sI1066
S'denver'
p1067
sI1067
S'learning'
p1068
sI1068
S'liberal'
p1069
sI1069
S'math'
p1070
sI1070
S'destroyed'
p1071
sI1071
S'intrude'
p1072
sI1072
S'cares'
p1073
sI1073
S'west'
p1074
sI1074
S'ledbetter'
p1075
sI1075
S'mark'
p1076
sI1076
S'combined'
p1077
sI1077
S'featuring'
p1078
sI1078
S'collegeopportunity'
p1079
sI1079
S'direction'
p1080
sI1080
S'shopping'
p1081
sI1081
S'boehnershutdown'
p1082
sI1082
S'photos'
p1083
sI1083
S'laying'
p1084
sI1084
S'evidence'
p1085
sI1085
S'champions'
p1086
sI1086
S'those'
p1087
sI1087
S'case'
p1088
sI1088
S'these'
p1089
sI1089
S'wealthiest'
p1090
sI1090
S'trick'
p1091
sI1091
S'cast'
p1092
sI1092
S'ongoing'
p1093
sI1093
S'policies'
p1094
sI1094
S'promising'
p1095
sI1095
S'situation'
p1096
sI1096
S'donors'
p1097
sI1097
S'commander'
p1098
sI1098
S'middle'
p1099
sI1099
S'good'
p1100
sI1100
S'embrace'
p1101
sI1101
S'sameach'
p1102
sI1102
S'affected'
p1103
sI1103
S'technology'
p1104
sI1104
S'everyday'
p1105
sI1105
S'worry'
p1106
sI1106
S'different'
p1107
sI1107
S'doctor'
p1108
sI1108
S'pay'
p1109
sI1109
S'same'
p1110
sI1110
S'americaleads'
p1111
sI1111
S'speech'
p1112
sI1112
S'underestimate'
p1113
sI1113
S'reminder'
p1114
sI1114
S'prayers'
p1115
sI1115
S'events'
p1116
sI1116
S'week'
p1117
sI1117
S'oil'
p1118
sI1118
S'centuries'
p1119
sI1119
S'applaud'
p1120
sI1120
S'running'
p1121
sI1121
S'statue'
p1122
sI1122
S'intended'
p1123
sI1123
S'changing'
p1124
sI1124
S'renewable'
p1125
sI1125
S'weakened'
p1126
sI1126
S'pennsylvania'
p1127
sI1127
S'no'
p1128
sI1128
S'severe'
p1129
sI1129
S'costs'
p1130
sI1130
S'relief'
p1131
sI1131
S'bodies'
p1132
sI1132
S'summer'
p1133
sI1133
S'stake'
p1134
sI1134
S'being'
p1135
sI1135
S'money'
p1136
sI1136
S'guided'
p1137
sI1137
S'sights'
p1138
sI1138
S'actions'
p1139
sI1139
S'youwillnotbetakenseriouslyif'
p1140
sI1140
S'co'
p1141
sI1141
S'reality'
p1142
sI1142
S'speed'
p1143
sI1143
S'weekly'
p1144
sI1144
S'death'
p1145
sI1145
S'thinking'
p1146
sI1146
S'except'
p1147
sI1147
S'blog'
p1148
sI1148
S'lets'
p1149
sI1149
S'thoughts'
p1150
sI1150
S'real'
p1151
sI1151
S'around'
p1152
sI1152
S'romneyeconomics'
p1153
sI1153
S'read'
p1154
sI1154
S'irandeal'
p1155
sI1155
S'selma'
p1156
sI1156
S'virginia'
p1157
sI1157
S'early'
p1158
sI1158
S'mom'
p1159
sI1159
S'world'
p1160
sI1160
S'disappointed'
p1161
sI1161
S'fortune'
p1162
sI1162
S'kennedy'
p1163
sI1163
S'patrick'
p1164
sI1164
S'hotel'
p1165
sI1165
S'facing'
p1166
sI1166
S'chamber'
p1167
sI1167
S'benefit'
p1168
sI1168
S'donations'
p1169
sI1169
S't'
p1170
sI1170
S'dontdoublemyrate'
p1171
sI1171
S'always'
p1172
sI1172
S'served'
p1173
sI1173
S'endorsed'
p1174
sI1174
S'reduced'
p1175
sI1175
S'trying'
p1176
sI1176
S'wedemandavote'
p1177
sI1177
S'competition'
p1178
sI1178
S'thinks'
p1179
sI1179
S'passions'
p1180
sI1180
S'recorded'
p1181
sI1181
S'legal'
p1182
sI1182
S'conservative'
p1183
sI1183
S'inequality'
p1184
sI1184
S'deficit'
p1185
sI1185
S'decent'
p1186
sI1186
S'restoring'
p1187
sI1187
S'business'
p1188
sI1188
S'sensible'
p1189
sI1189
S'each'
p1190
sI1190
S'broken'
p1191
sI1191
S'leadership'
p1192
sI1192
S'throw'
p1193
sI1193
S'manufacturer'
p1194
sI1194
S'on'
p1195
sI1195
S'aca'
p1196
sI1196
S'central'
p1197
sI1197
S'package'
p1198
sI1198
S'island'
p1199
sI1199
S'industry'
p1200
sI1200
S'violence'
p1201
sI1201
S'favorite'
p1202
sI1202
S'inviting'
p1203
sI1203
S'thousands'
p1204
sI1204
S'practical'
p1205
sI1205
S'medicare'
p1206
sI1206
S'stand'
p1207
sI1207
S'act'
p1208
sI1208
S'or'
p1209
sI1209
S'road'
p1210
sI1210
S'op'
p1211
sI1211
S'whites'
p1212
sI1212
S'image'
p1213
sI1213
S'blessed'
p1214
sI1214
S'wrongagainryan'
p1215
sI1215
S'accounts'
p1216
sI1216
S'dreaming'
p1217
sI1217
S'watchdog'
p1218
sI1218
S'your'
p1219
sI1219
S'her'
p1220
sI1220
S'aren'
p1221
sI1221
S'there'
p1222
sI1222
S'hey'
p1223
sI1223
S'start'
p1224
sI1224
S'lot'
p1225
sI1225
S'repkeygranger'
p1226
sI1226
S'marketplace'
p1227
sI1227
S'strikes'
p1228
sI1228
S'ended'
p1229
sI1229
S'gore'
p1230
sI1230
S'costco'
p1231
sI1231
S'with'
p1232
sI1232
S'climatechangeisreal'
p1233
sI1233
S'longer'
p1234
sI1234
S'extend'
p1235
sI1235
S'hire'
p1236
sI1236
S'fraud'
p1237
sI1237
S'bucket'
p1238
sI1238
S'organize'
p1239
sI1239
S'politically'
p1240
sI1240
S'agree'
p1241
sI1241
S'wants'
p1242
sI1242
S'intents'
p1243
sI1243
S'taylor'
p1244
sI1244
S'ad'
p1245
sI1245
S'videos'
p1246
sI1246
S'ak'
p1247
sI1247
S'am'
p1248
sI1248
S'al'
p1249
sI1249
S'deep'
p1250
sI1250
S'fellow'
p1251
sI1251
S'as'
p1252
sI1252
S'at'
p1253
sI1253
S'trickled'
p1254
sI1254
S'politics'
p1255
sI1255
S'fill'
p1256
sI1256
S'again'
p1257
sI1257
S'yom'
p1258
sI1258
S'deserve'
p1259
sI1259
S'event'
p1260
sI1260
S'tight'
p1261
sI1261
S'readytowork'
p1262
sI1262
S'you'
p1263
sI1263
S'poor'
p1264
sI1264
S'shutdowns'
p1265
sI1265
S'congress'
p1266
sI1266
S'students'
p1267
sI1267
S'important'
p1268
sI1268
S'massachusetts'
p1269
sI1269
S'coverage'
p1270
sI1270
S'tackle'
p1271
sI1271
S'finals'
p1272
sI1272
S'building'
p1273
sI1273
S'calls'
p1274
sI1274
S'invest'
p1275
sI1275
S'odds'
p1276
sI1276
S'repay'
p1277
sI1277
S'u'
p1278
sI1278
S'nelson'
p1279
sI1279
S'overseas'
p1280
sI1280
S'starting'
p1281
sI1281
S'all'
p1282
sI1282
S'consider'
p1283
sI1283
S'founder'
p1284
sI1284
S'grassroots'
p1285
sI1285
S'groundwork'
p1286
sI1286
S'caused'
p1287
sI1287
S'month'
p1288
sI1288
S'founded'
p1289
sI1289
S'deadline'
p1290
sI1290
S'fairness'
p1291
sI1291
S'follow'
p1292
sI1292
S'decisions'
p1293
sI1293
S'children'
p1294
sI1294
S'tx'
p1295
sI1295
S'tv'
p1296
sI1296
S'pledged'
p1297
sI1297
S'wyoming'
p1298
sI1298
S'thursday'
p1299
sI1299
S'former'
p1300
sI1300
S'opportunityforall'
p1301
sI1301
S'to'
p1302
sI1302
S'millionandcounting'
p1303
sI1303
S'th'
p1304
sI1304
S'health'
p1305
sI1305
S'lawmakers'
p1306
sI1306
S'mandela'
p1307
sI1307
S'woman'
p1308
sI1308
S'worse'
p1309
sI1309
S'sitting'
p1310
sI1310
S'very'
p1311
sI1311
S'standards'
p1312
sI1312
S'sasha'
p1313
sI1313
S'sons'
p1314
sI1314
S'decide'
p1315
sI1315
S'fall'
p1316
sI1316
S'awful'
p1317
sI1317
S'ticket'
p1318
sI1318
S'difference'
p1319
sI1319
S'condition'
p1320
sI1320
S'treating'
p1321
sI1321
S'moines'
p1322
sI1322
S'recommit'
p1323
sI1323
S'list'
p1324
sI1324
S'joined'
p1325
sI1325
S'warrenbuffett'
p1326
sI1326
S'large'
p1327
sI1327
S'lesbians'
p1328
sI1328
S'small'
p1329
sI1329
S'angelou'
p1330
sI1330
S'tea'
p1331
sI1331
S'ted'
p1332
sI1332
S'past'
p1333
sI1333
S'betterwithobamacare'
p1334
sI1334
S'rate'
p1335
sI1335
S'pass'
p1336
sI1336
S'canvass'
p1337
sI1337
S'womensucceed'
p1338
sI1338
S'investment'
p1339
sI1339
S'conscience'
p1340
sI1340
S'what'
p1341
sI1341
S'stood'
p1342
sI1342
S'consumers'
p1343
sI1343
S'clock'
p1344
sI1344
S'investing'
p1345
sI1345
S'deeply'
p1346
sI1346
S'anniversary'
p1347
sI1347
S'crush'
p1348
sI1348
S'version'
p1349
sI1349
S'scientists'
p1350
sI1350
S'tribute'
p1351
sI1351
S'public'
p1352
sI1352
S'handy'
p1353
sI1353
S'movement'
p1354
sI1354
S'hasn'
p1355
sI1355
S'full'
p1356
sI1356
S'iran'
p1357
sI1357
S'answers'
p1358
sI1358
S'hours'
p1359
sI1359
S'shouldn'
p1360
sI1360
S'actonjobs'
p1361
sI1361
S'investigating'
p1362
sI1362
S'november'
p1363
sI1363
S'strong'
p1364
sI1364
S'observing'
p1365
sI1365
S'tragedy'
p1366
sI1366
S'speeches'
p1367
sI1367
S'ahead'
p1368
sI1368
S'inspired'
p1369
sI1369
S'allows'
p1370
sI1370
S'airport'
p1371
sI1371
S'healthier'
p1372
sI1372
S'social'
p1373
sI1373
S'action'
p1374
sI1374
S'options'
p1375
sI1375
S'sticking'
p1376
sI1376
S'via'
p1377
sI1377
S'toughness'
p1378
sI1378
S'family'
p1379
sI1379
S'suddenly'
p1380
sI1380
S'father'
p1381
sI1381
S'wesleyan'
p1382
sI1382
S'ask'
p1383
sI1383
S'aimed'
p1384
sI1384
S'detailsmatter'
p1385
sI1385
S'armed'
p1386
sI1386
S'takes'
p1387
sI1387
S'iraqi'
p1388
sI1388
S'texting'
p1389
sI1389
S'two'
p1390
sI1390
S'taken'
p1391
sI1391
S'authorization'
p1392
sI1392
S'more'
p1393
sI1393
S'israel'
p1394
sI1394
S'door'
p1395
sI1395
S'knows'
p1396
sI1396
S'pennypritzker'
p1397
sI1397
S'iowans'
p1398
sI1398
S'company'
p1399
sI1399
S'notbackingdown'
p1400
sI1400
S'excuse'
p1401
sI1401
S'landed'
p1402
sI1402
S'tees'
p1403
sI1403
S'town'
p1404
sI1404
S'helped'
p1405
sI1405
S'keeping'
p1406
sI1406
S'hour'
p1407
sI1407
S'science'
p1408
sI1408
S'des'
p1409
sI1409
S'timryan'
p1410
sI1410
S'sent'
p1411
sI1411
S'learn'
p1412
sI1412
S'abandon'
p1413
sI1413
S'male'
p1414
sI1414
S'history'
p1415
sI1415
S'beautiful'
p1416
sI1416
S'stubborn'
p1417
sI1417
S'challenging'
p1418
sI1418
S'share'
p1419
sI1419
S'states'
p1420
sI1420
S'biden'
p1421
sI1421
S'minimum'
p1422
sI1422
S'protects'
p1423
sI1423
S'numbers'
p1424
sI1424
S'sense'
p1425
sI1425
S'information'
p1426
sI1426
S'needs'
p1427
sI1427
S'court'
p1428
sI1428
S'goal'
p1429
sI1429
S'rather'
p1430
sI1430
S'stickers'
p1431
sI1431
S'breaking'
p1432
sI1432
S'randyneugebauer'
p1433
sI1433
S'naturbanleague'
p1434
sI1434
S'standwithourfuture'
p1435
sI1435
S'hugs'
p1436
sI1436
S'plant'
p1437
sI1437
S'plans'
p1438
sI1438
S'advice'
p1439
sI1439
S'frills'
p1440
sI1440
S'reflect'
p1441
sI1441
S'indomitable'
p1442
sI1442
S'ff'
p1443
sI1443
S'coming'
p1444
sI1444
S'response'
p1445
sI1445
S'a'
p1446
sI1446
S'refuse'
p1447
sI1447
S'register'
p1448
sI1448
S'crippling'
p1449
sI1449
S'responsibility'
p1450
sI1450
S'fundamental'
p1451
sI1451
S'banks'
p1452
sI1452
S'putting'
p1453
sI1453
S'dream'
p1454
sI1454
S'playing'
p1455
sI1455
S'help'
p1456
sI1456
S'finalized'
p1457
sI1457
S'september'
p1458
sI1458
S'developed'
p1459
sI1459
S'soon'
p1460
sI1460
S'held'
p1461
sI1461
S'paper'
p1462
sI1462
S'through'
p1463
sI1463
S'signs'
p1464
sI1464
S'avenue'
p1465
sI1465
S'its'
p1466
sI1466
S'renewui'
p1467
sI1467
S'unleashing'
p1468
sI1468
S'actually'
p1469
sI1469
S'late'
p1470
sI1470
S'absence'
p1471
sI1471
S'individuals'
p1472
sI1472
S'penn'
p1473
sI1473
S'might'
p1474
sI1474
S'arguments'
p1475
sI1475
S'evening'
p1476
sI1476
S'somebody'
p1477
sI1477
S'primary'
p1478
sI1478
S'geopolitical'
p1479
sI1479
S'newsflash'
p1480
sI1480
S'icymi'
p1481
sI1481
S'milestone'
p1482
sI1482
S'communities'
p1483
sI1483
S'bigger'
p1484
sI1484
S'fully'
p1485
sI1485
S'someone'
p1486
sI1486
S'habits'
p1487
sI1487
S'stopped'
p1488
sI1488
S'barrels'
p1489
sI1489
S'status'
p1490
sI1490
S'everyone'
p1491
sI1491
S'mental'
p1492
sI1492
S'generation'
p1493
sI1493
S'house'
p1494
sI1494
S'energy'
p1495
sI1495
S'hard'
p1496
sI1496
S'reduce'
p1497
sI1497
S'idea'
p1498
sI1498
S'democrat'
p1499
sI1499
S'finish'
p1500
sI1500
S'fewer'
p1501
sI1501
S'fist'
p1502
sI1502
S'blues'
p1503
sI1503
S'beyond'
p1504
sI1504
S'insurance'
p1505
sI1505
S'really'
p1506
sI1506
S'leave'
p1507
sI1507
S'initiatives'
p1508
sI1508
S'funding'
p1509
sI1509
S'missed'
p1510
sI1510
S'blacks'
p1511
sI1511
S'bullied'
p1512
sI1512
S'nowisthetime'
p1513
sI1513
S'since'
p1514
sI1514
S'research'
p1515
sI1515
S'safety'
p1516
sI1516
S'hill'
p1517
sI1517
S'issue'
p1518
sI1518
S'wisconsin'
p1519
sI1519
S'belief'
p1520
sI1520
S'friday'
p1521
sI1521
S'extraordinary'
p1522
sI1522
S'reason'
p1523
sI1523
S'giveaway'
p1524
sI1524
S'members'
p1525
sI1525
S'imagine'
p1526
sI1526
S'put'
p1527
sI1527
S'earliest'
p1528
sI1528
S'beginning'
p1529
sI1529
S'bumped'
p1530
sI1530
S'owners'
p1531
sI1531
S'benefits'
p1532
sI1532
S'launch'
p1533
sI1533
S'american'
p1534
sI1534
S'threat'
p1535
sI1535
S'bumper'
p1536
sI1536
S'consequence'
p1537
sI1537
S'syria'
p1538
sI1538
S'major'
p1539
sI1539
S'feel'
p1540
sI1540
S'girls'
p1541
sI1541
S'knocking'
p1542
sI1542
S'number'
p1543
sI1543
S'traveled'
p1544
sI1544
S'done'
p1545
sI1545
S'wages'
p1546
sI1546
S'miss'
p1547
sI1547
S'passes'
p1548
sI1548
S'story'
p1549
sI1549
S'heads'
p1550
sI1550
S'guest'
p1551
sI1551
S'coasts'
p1552
sI1552
S'marchon'
p1553
sI1553
S'least'
p1554
sI1554
S'belongs'
p1555
sI1555
S'smile'
p1556
sI1556
S'passed'
p1557
sI1557
S'compromise'
p1558
sI1558
S'recovered'
p1559
sI1559
S'selling'
p1560
sI1560
S'statement'
p1561
sI1561
S'trapped'
p1562
sI1562
S'tom'
p1563
sI1563
S'chattanooga'
p1564
sI1564
S'part'
p1565
sI1565
S'jordan'
p1566
sI1566
S'focusing'
p1567
sI1567
S'believe'
p1568
sI1568
S'convinced'
p1569
sI1569
S'inconvenient'
p1570
sI1570
S'stirs'
p1571
sI1571
S'obama'
p1572
sI1572
S'walkthewalk'
p1573
sI1573
S'king'
p1574
sI1574
S'kind'
p1575
sI1575
S'b'
p1576
sI1576
S'womensequalityday'
p1577
sI1577
S'condolences'
p1578
sI1578
S'double'
p1579
sI1579
S'colin'
p1580
sI1580
S'outrageous'
p1581
sI1581
S'marriage'
p1582
sI1582
S'risks'
p1583
sI1583
S'listen'
p1584
sI1584
S'treated'
p1585
sI1585
S'declare'
p1586
sI1586
S'subsidies'
p1587
sI1587
S'cleaner'
p1588
sI1588
S'contraception'
p1589
sI1589
S'strengthen'
p1590
sI1590
S'imports'
p1591
sI1591
S'fights'
p1592
sI1592
S'meltdown'
p1593
sI1593
S'lie'
p1594
sI1594
S'built'
p1595
sI1595
S'accountable'
p1596
sI1596
S'majority'
p1597
sI1597
S'without'
p1598
sI1598
S'play'
p1599
sI1599
S'added'
p1600
sI1600
S'sweatshirts'
p1601
sI1601
S'reach'
p1602
sI1602
S'affordability'
p1603
sI1603
S'kal'
p1604
sI1604
S'most'
p1605
sI1605
S'plan'
p1606
sI1606
S'services'
p1607
sI1607
S'barackobama'
p1608
sI1608
S'loopholes'
p1609
sI1609
S'seize'
p1610
sI1610
S'clear'
p1611
sI1611
S'cover'
p1612
sI1612
S'clean'
p1613
sI1613
S'attacking'
p1614
sI1614
S'sector'
p1615
sI1615
S'gold'
p1616
sI1616
S'obligations'
p1617
sI1617
S'session'
p1618
sI1618
S'businesses'
p1619
sI1619
S'newest'
p1620
sI1620
S'fine'
p1621
sI1621
S'find'
p1622
sI1622
S'impact'
p1623
sI1623
S'duncan'
p1624
sI1624
S'justice'
p1625
sI1625
S'failed'
p1626
sI1626
S'betray'
p1627
sI1627
S'pretty'
p1628
sI1628
S'billclinton'
p1629
sI1629
S'giants'
p1630
sI1630
S'his'
p1631
sI1631
S'founding'
p1632
sI1632
S'hiv'
p1633
sI1633
S'dependent'
p1634
sI1634
S'sunny'
p1635
sI1635
S'cheaper'
p1636
sI1636
S'famous'
p1637
sI1637
S'feels'
p1638
sI1638
S'courage'
p1639
sI1639
S'fastest'
p1640
sI1640
S'pretending'
p1641
sI1641
S'during'
p1642
sI1642
S'him'
p1643
sI1643
S'jeanne'
p1644
sI1644
S'enemy'
p1645
sI1645
S'resolve'
p1646
sI1646
S'sacrificed'
p1647
sI1647
S'boost'
p1648
sI1648
S'sacrifices'
p1649
sI1649
S'common'
p1650
sI1650
S'hike'
p1651
sI1651
S'kalamazoo'
p1652
sI1652
S'repronpaul'
p1653
sI1653
S'set'
p1654
sI1654
S'patriotism'
p1655
sI1655
S'see'
p1656
sI1656
S'defense'
p1657
sI1657
S'are'
p1658
sI1658
S'sea'
p1659
sI1659
S'polish'
p1660
sI1660
S'close'
p1661
sI1661
S'bark'
p1662
sI1662
S'retweet'
p1663
sI1663
S'matter'
p1664
sI1664
S'movie'
p1665
sI1665
S'please'
p1666
sI1666
S'won'
p1667
sI1667
S'certificate'
p1668
sI1668
S'toledo'
p1669
sI1669
S'consecutive'
p1670
sI1670
S'conditions'
p1671
sI1671
S'knowing'
p1672
sI1672
S'creating'
p1673
sI1673
S'sold'
p1674
sI1674
S'nashville'
p1675
sI1675
S'roe'
p1676
sI1676
S'ofaclimate'
p1677
sI1677
S'succeed'
p1678
sI1678
S'stopgunviolence'
p1679
sI1679
S'legislature'
p1680
sI1680
S'both'
p1681
sI1681
S'toward'
p1682
sI1682
S'improved'
p1683
sI1683
S'foreign'
p1684
sI1684
S'became'
p1685
sI1685
S'poverty'
p1686
sI1686
S'whole'
p1687
sI1687
S'consume'
p1688
sI1688
S'point'
p1689
sI1689
S'reasons'
p1690
sI1690
S'loan'
p1691
sI1691
S'community'
p1692
sI1692
S'shutdown'
p1693
sI1693
S'church'
p1694
sI1694
S'mission'
p1695
sI1695
S'nominee'
p1696
sI1696
S'create'
p1697
sI1697
S'political'
p1698
sI1698
S'due'
p1699
sI1699
S'strategy'
p1700
sI1700
S'hitting'
p1701
sI1701
S'whom'
p1702
sI1702
S'secret'
p1703
sI1703
S'pa'
p1704
sI1704
S'preventable'
p1705
sI1705
S'pi'
p1706
sI1706
S'meeting'
p1707
sI1707
S'pm'
p1708
sI1708
S'slips'
p1709
sI1709
S'generating'
p1710
sI1710
S'flight'
p1711
sI1711
S'else'
p1712
sI1712
S'fund'
p1713
sI1713
S'whatever'
p1714
sI1714
S'lives'
p1715
sI1715
S'representative'
p1716
sI1716
S'plants'
p1717
sI1717
S'pierce'
p1718
sI1718
S'politician'
p1719
sI1719
S'look'
p1720
sI1720
S'congresstodolist'
p1721
sI1721
S'pacs'
p1722
sI1722
S'enrollment'
p1723
sI1723
S'bill'
p1724
sI1724
S'budget'
p1725
sI1725
S'governor'
p1726
sI1726
S'deferred'
p1727
sI1727
S'while'
p1728
sI1728
S'chant'
p1729
sI1729
S'fun'
p1730
sI1730
S'guide'
p1731
sI1731
S'birthright'
p1732
sI1732
S'hoping'
p1733
sI1733
S'century'
p1734
sI1734
S'calculator'
p1735
sI1735
S'belmont'
p1736
sI1736
S'hoax'
p1737
sI1737
S'ready'
p1738
sI1738
S'limit'
p1739
sI1739
S'rid'
p1740
sI1740
S'fairer'
p1741
sI1741
S'funny'
p1742
sI1742
S'shirt'
p1743
sI1743
S'belong'
p1744
sI1744
S'rules'
p1745
sI1745
S'daughters'
p1746
sI1746
S'higher'
p1747
sI1747
S'used'
p1748
sI1748
S'comprehensive'
p1749
sI1749
S'yesterday'
p1750
sI1750
S'holidays'
p1751
sI1751
S'moment'
p1752
sI1752
S'levels'
p1753
sI1753
S'moving'
p1754
sI1754
S'necessity'
p1755
sI1755
S'recognized'
p1756
sI1756
S'lower'
p1757
sI1757
S'task'
p1758
sI1758
S'poland'
p1759
sI1759
S'person'
p1760
sI1760
S'cheer'
p1761
sI1761
S'withdraw'
p1762
sI1762
S'y'
p1763
sI1763
S'prevention'
p1764
sI1764
S'listening'
p1765
sI1765
S'repealing'
p1766
sI1766
S'openly'
p1767
sI1767
S'uswnt'
p1768
sI1768
S'questions'
p1769
sI1769
S'using'
p1770
sI1770
S'continent'
p1771
sI1771
S'wage'
p1772
sI1772
S'cut'
p1773
sI1773
S'also'
p1774
sI1774
S'lady'
p1775
sI1775
S'workers'
p1776
sI1776
S'barack'
p1777
sI1777
S'eager'
p1778
sI1778
S'parents'
p1779
sI1779
S'homeland'
p1780
sI1780
S'presidents'
p1781
sI1781
S'ballots'
p1782
sI1782
S'guarantees'
p1783
sI1783
S'easter'
p1784
sI1784
S'excited'
p1785
sI1785
S'march'
p1786
sI1786
S'forces'
p1787
sI1787
S'emergency'
p1788
sI1788
S'demands'
p1789
sI1789
S'big'
p1790
sI1790
S'couple'
p1791
sI1791
S'game'
p1792
sI1792
S'buyout'
p1793
sI1793
S'knock'
p1794
sI1794
S'success'
p1795
sI1795
S'continue'
p1796
sI1796
S'surging'
p1797
sI1797
S'popular'
p1798
sI1798
S'saddled'
p1799
sI1799
S'dinnerwithbarackandjoe'
p1800
sI1800
S'senate'
p1801
sI1801
S'wearorange'
p1802
sI1802
S'creation'
p1803
sI1803
S'some'
p1804
sI1804
S'back'
p1805
sI1805
S'streaming'
p1806
sI1806
S'strongest'
p1807
sI1807
S'economic'
p1808
sI1808
S'sight'
p1809
sI1809
S'ourselves'
p1810
sI1810
S'distorting'
p1811
sI1811
S'delivered'
p1812
sI1812
S'decision'
p1813
sI1813
S'per'
p1814
sI1814
S'eliminate'
p1815
sI1815
S'innovation'
p1816
sI1816
S'either'
p1817
sI1817
S'cgi'
p1818
sI1818
S'be'
p1819
sI1819
S'run'
p1820
sI1820
S'word'
p1821
sI1821
S'bo'
p1822
sI1822
S'use'
p1823
sI1823
S'step'
p1824
sI1824
S'bp'
p1825
sI1825
S'output'
p1826
sI1826
S'refuses'
p1827
sI1827
S'by'
p1828
sI1828
S'faith'
p1829
sI1829
S'pipeline'
p1830
sI1830
S'usa'
p1831
sI1831
S'anything'
p1832
sI1832
S'passover'
p1833
sI1833
S'graduation'
p1834
sI1834
S'deserves'
p1835
sI1835
S'imarch'
p1836
sI1836
S'congressman'
p1837
sI1837
S'pollution'
p1838
sI1838
S'resiliency'
p1839
sI1839
S'clinton'
p1840
sI1840
S'plenty'
p1841
sI1841
S'into'
p1842
sI1842
S'within'
p1843
sI1843
S'nonsense'
p1844
sI1844
S'nothing'
p1845
sI1845
S'remembrance'
p1846
sI1846
S'pentagon'
p1847
sI1847
S'resilience'
p1848
sI1848
S'spending'
p1849
sI1849
S'question'
p1850
sI1850
S'long'
p1851
sI1851
S'custom'
p1852
sI1852
S'crackdown'
p1853
sI1853
S'forward'
p1854
sI1854
S'manufacture'
p1855
sI1855
S'registered'
p1856
sI1856
S'immigration'
p1857
sI1857
S'deductions'
p1858
sI1858
S'link'
p1859
sI1859
S'adults'
p1860
sI1860
S'episode'
p1861
sI1861
S'line'
p1862
sI1862
S'raising'
p1863
sI1863
S'info'
p1864
sI1864
S'sounds'
p1865
sI1865
S'cio'
p1866
sI1866
S'up'
p1867
sI1867
S'us'
p1868
sI1868
S'erica'
p1869
sI1869
S'planet'
p1870
sI1870
S'growth'
p1871
sI1871
S'z'
p1872
sI1872
S'malia'
p1873
sI1873
S'chag'
p1874
sI1874
S'introducing'
p1875
sI1875
S'defined'
p1876
sI1876
S'willed'
p1877
sI1877
S'doesn'
p1878
sI1878
S'single'
p1879
sI1879
S'chat'
p1880
sI1880
S'rally'
p1881
sI1881
S'defines'
p1882
sI1882
S'employment'
p1883
sI1883
S'peace'
p1884
sI1884
S'application'
p1885
sI1885
S'politicians'
p1886
sI1886
S'bracket'
p1887
sI1887
S'income'
p1888
sI1888
S'department'
p1889
sI1889
S'bandstand'
p1890
sI1890
S'proposal'
p1891
sI1891
S'gameday'
p1892
sI1892
S'problems'
p1893
sI1893
S'visits'
p1894
sI1894
S'prepared'
p1895
sI1895
S'helping'
p1896
sI1896
S'peopleoverpolitics'
p1897
sI1897
S'springsteen'
p1898
sI1898
S'ago'
p1899
sI1899
S'land'
p1900
sI1900
S'vice'
p1901
sI1901
S'age'
p1902
sI1902
S'youtube'
p1903
sI1903
S'rallies'
p1904
sI1904
S'far'
p1905
sI1905
S'having'
p1906
sI1906
S'once'
p1907
sI1907
S'code'
p1908
sI1908
S'broaden'
p1909
sI1909
S'existing'
p1910
sI1910
S'infographic'
p1911
sI1911
S'stops'
p1912
sI1912
S'broader'
p1913
sI1913
S'go'
p1914
sI1914
S'gm'
p1915
sI1915
S'centers'
p1916
sI1916
S'issues'
p1917
sI1917
S'stephenathome'
p1918
sI1918
S'disposal'
p1919
sI1919
S'young'
p1920
sI1920
S'send'
p1921
sI1921
S'suits'
p1922
sI1922
S'helps'
p1923
sI1923
S'officials'
p1924
sI1924
S'lilly'
p1925
sI1925
S'resources'
p1926
sI1926
S'enoughalready'
p1927
sI1927
S'outside'
p1928
sI1928
S'continues'
p1929
sI1929
S'wishes'
p1930
sI1930
S'facebook'
p1931
sI1931
S'telling'
p1932
sI1932
S'gurion'
p1933
sI1933
S'entire'
p1934
sI1934
S'gender'
p1935
sI1935
S'button'
p1936
sI1936
S'michael'
p1937
sI1937
S'ryan'
p1938
sI1938
S'try'
p1939
sI1939
S'race'
p1940
sI1940
S'obesity'
p1941
sI1941
S'cap'
p1942
sI1942
S'netneutrality'
p1943
sI1943
S'video'
p1944
sI1944
S'booth'
p1945
sI1945
S'honors'
p1946
sI1946
S'nevada'
p1947
sI1947
S'power'
p1948
sI1948
S'chicago'
p1949
sI1949
S'giving'
p1950
sI1950
S'access'
p1951
sI1951
S'waiting'
p1952
sI1952
S'led'
p1953
sI1953
S'degree'
p1954
sI1954
S'upsetting'
p1955
sI1955
S'delivering'
p1956
sI1956
S'bachelor'
p1957
sI1957
S'let'
p1958
sI1958
S'others'
p1959
sI1959
S'consideration'
p1960
sI1960
S'safer'
p1961
sI1961
S'fifteen'
p1962
sI1962
S'getcoverednow'
p1963
sI1963
S'great'
p1964
sI1964
S'involved'
p1965
sI1965
S'alaska'
p1966
sI1966
S'products'
p1967
sI1967
S'makes'
p1968
sI1968
S'honor'
p1969
sI1969
S'apple'
p1970
sI1970
S'claim'
p1971
sI1971
S'egypt'
p1972
sI1972
S'win'
p1973
sI1973
S'private'
p1974
sI1974
S'arlen'
p1975
sI1975
S'oval'
p1976
sI1976
S'apply'
p1977
sI1977
S'tools'
p1978
sI1978
S'menino'
p1979
sI1979
S'standing'
p1980
sI1980
S'fed'
p1981
sI1981
S'from'
p1982
sI1982
S'stream'
p1983
sI1983
S'consumption'
p1984
sI1984
S'next'
p1985
sI1985
S'few'
p1986
sI1986
S'doubt'
p1987
sI1987
S'estimated'
p1988
sI1988
S'congratulates'
p1989
sI1989
S'themselves'
p1990
sI1990
S'chip'
p1991
sI1991
S'touched'
p1992
sI1992
S'actonclimate'
p1993
sI1993
S'gwenstefani'
p1994
sI1994
S'journalists'
p1995
sI1995
S'started'
p1996
sI1996
S'arne'
p1997
sI1997
S'sister'
p1998
sI1998
S'trail'
p1999
sI1999
S'promisekept'
p2000
sI2000
S'appointed'
p2001
sI2001
S'women'
p2002
sI2002
S'account'
p2003
sI2003
S'dontwait'
p2004
sI2004
S'announcing'
p2005
sI2005
S'sanctions'
p2006
sI2006
S'this'
p2007
sI2007
S'challenge'
p2008
sI2008
S'of'
p2009
sI2009
S'meet'
p2010
sI2010
S'closing'
p2011
sI2011
S'potus'
p2012
sI2012
S'control'
p2013
sI2013
S'streamed'
p2014
sI2014
S'reserved'
p2015
sI2015
S'plate'
p2016
sI2016
S'process'
p2017
sI2017
S'tax'
p2018
sI2018
S'purposes'
p2019
sI2019
S'high'
p2020
sI2020
S'pulling'
p2021
sI2021
S'something'
p2022
sI2022
S'sought'
p2023
sI2023
S'hit'
p2024
sI2024
S'rape'
p2025
sI2025
S'afl'
p2026
sI2026
S'united'
p2027
sI2027
S'embodiment'
p2028
sI2028
S'democracy'
p2029
sI2029
S'sit'
p2030
sI2030
S'destroying'
p2031
sI2031
S'six'
p2032
sI2032
S'findyourpark'
p2033
sI2033
S'winners'
p2034
sI2034
S'forest'
p2035
sI2035
S'instead'
p2036
sI2036
S'farm'
p2037
sI2037
S'stop'
p2038
sI2038
S'philosophy'
p2039
sI2039
S'ties'
p2040
sI2040
S'winter'
p2041
sI2041
S'light'
p2042
sI2042
S'chief'
p2043
sI2043
S'agenda'
p2044
sI2044
S'volunteers'
p2045
sI2045
S'longest'
p2046
sI2046
S'deniers'
p2047
sI2047
S'timetoact'
p2048
sI2048
S'move'
p2049
sI2049
S'michaelcburgess'
p2050
sI2050
S'including'
p2051
sI2051
S'looks'
p2052
sI2052
S'cruise'
p2053
sI2053
S'warren'
p2054
sI2054
S'perfect'
p2055
sI2055
S'chosen'
p2056
sI2056
S'll'
p2057
sI2057
S'winning'
p2058
sI2058
S'previously'
p2059
sI2059
S'permanent'
p2060
sI2060
S'choose'
p2061
sI2061
S'covered'
p2062
sI2062
S'holiday'
p2063
sI2063
S'dad'
p2064
sI2064
S'crash'
p2065
sI2065
S'greater'
p2066
sI2066
S'auto'
p2067
sI2067
S'disrupted'
p2068
sI2068
S'cutting'
p2069
sI2069
S'legendary'
p2070
sI2070
S'souza'
p2071
sI2071
S'republican'
p2072
sI2072
S'day'
p2073
sI2073
S'presidential'
p2074
sI2074
S'applicants'
p2075
sI2075
S'university'
p2076
sI2076
S'slide'
p2077
sI2077
S'truth'
p2078
sI2078
S'rising'
p2079
sI2079
S'shaking'
p2080
sI2080
S'seniors'
p2081
sI2081
S'doing'
p2082
sI2082
S'parties'
p2083
sI2083
S'unbelievable'
p2084
sI2084
S'static'
p2085
sI2085
S'measure'
p2086
sI2086
S'our'
p2087
sI2087
S'nbafinals'
p2088
sI2088
S'sexual'
p2089
sI2089
S'special'
p2090
sI2090
S'out'
p2091
sI2091
S'appearance'
p2092
sI2092
S'fundamentally'
p2093
sI2093
S'arriving'
p2094
sI2094
S'announces'
p2095
sI2095
S'rep'
p2096
sI2096
S'laramie'
p2097
sI2097
S'honorable'
p2098
sI2098
S'electronics'
p2099
sI2099
S'supports'
p2100
sI2100
S'announced'
p2101
sI2101
S'shut'
p2102
sI2102
S'payroll'
p2103
sI2103
S'delegates'
p2104
sI2104
S'completely'
p2105
sI2105
S'jill'
p2106
sI2106
S'york'
p2107
sI2107
S'quo'
p2108
sI2108
S'backwards'
p2109
sI2109
S'yard'
p2110
sI2110
S'g'
p2111
sI2111
S'spill'
p2112
sI2112
S'could'
p2113
sI2113
S'florida'
p2114
sI2114
S'times'
p2115
sI2115
S'conversation'
p2116
sI2116
S'produce'
p2117
sI2117
S'austin'
p2118
sI2118
S'scare'
p2119
sI2119
S'succeeds'
p2120
sI2120
S'smallbusinesssaturday'
p2121
sI2121
S'powerful'
p2122
sI2122
S'bama'
p2123
sI2123
S'buffettrule'
p2124
sI2124
S'reached'
p2125
sI2125
S'quality'
p2126
sI2126
S'privacy'
p2127
sI2127
S'ordering'
p2128
sI2128
S'durable'
p2129
sI2129
S'idahot'
p2130
sI2130
S'system'
p2131
sI2131
S'priority'
p2132
sI2132
S'their'
p2133
sI2133
S'prouder'
p2134
sI2134
S'final'
p2135
sI2135
S'interests'
p2136
sI2136
S'wendell'
p2137
sI2137
S'july'
p2138
sI2138
S'overwhelming'
p2139
sI2139
S'loved'
p2140
sI2140
S'colleagues'
p2141
sI2141
S'ben'
p2142
sI2142
S'breadwinners'
p2143
sI2143
S'patients'
p2144
sI2144
S'arc'
p2145
sI2145
S'gays'
p2146
sI2146
S'providing'
p2147
sI2147
S'spurs'
p2148
sI2148
S'tonight'
p2149
sI2149
S'have'
p2150
sI2150
S'sen'
p2151
sI2151
S'need'
p2152
sI2152
S'flotus'
p2153
sI2153
S'whatwillittake'
p2154
sI2154
S'able'
p2155
sI2155
S'parks'
p2156
sI2156
S'which'
p2157
sI2157
S'trivia'
p2158
sI2158
S'therealromney'
p2159
sI2159
S'toughest'
p2160
sI2160
S'nytimes'
p2161
sI2161
S'combat'
p2162
sI2162
S'kingjames'
p2163
sI2163
S'who'
p2164
sI2164
S'sc'
p2165
sI2165
S'eight'
p2166
sI2166
S'medal'
p2167
sI2167
S'why'
p2168
sI2168
S'deny'
p2169
sI2169
S'placement'
p2170
sI2170
S'stronger'
p2171
sI2171
S'face'
p2172
sI2172
S'fact'
p2173
sI2173
S'violation'
p2174
sI2174
S'text'
p2175
sI2175
S'supported'
p2176
sI2176
S'brother'
p2177
sI2177
S'bring'
p2178
sI2178
S'planning'
p2179
sI2179
S'democrats'
p2180
sI2180
S'debate'
p2181
sI2181
S'decade'
p2182
sI2182
S'stamped'
p2183
sI2183
S'actionsummit'
p2184
sI2184
S'based'
p2185
sI2185
S'jay'
p2186
sI2186
S'actonreform'
p2187
sI2187
S'colbert'
p2188
sI2188
S'controls'
p2189
sI2189
S'should'
p2190
sI2190
S'jan'
p2191
sI2191
S'candidates'
p2192
sI2192
S'local'
p2193
sI2193
S'hope'
p2194
sI2194
S'watching'
p2195
sI2195
S'crumbling'
p2196
sI2196
S'wishing'
p2197
sI2197
S'michigan'
p2198
sI2198
S'october'
p2199
sI2199
S'words'
p2200
sI2200
S'webcast'
p2201
sI2201
S'entity'
p2202
sI2202
S'thrives'
p2203
sI2203
S'littlest'
p2204
sI2204
S'course'
p2205
sI2205
S'h'
p2206
sI2206
S'married'
p2207
sI2207
S'taxes'
p2208
sI2208
S'calling'
p2209
sI2209
S'reid'
p2210
sI2210
S'extremists'
p2211
sI2211
S'she'
p2212
sI2212
S'dangerous'
p2213
sI2213
S'ohio'
p2214
sI2214
S'grab'
p2215
sI2215
S'generations'
p2216
sI2216
S'view'
p2217
sI2217
S'buzzer'
p2218
sI2218
S'available'
p2219
sI2219
S'requirement'
p2220
sI2220
S'expel'
p2221
sI2221
S'national'
p2222
sI2222
S'pitch'
p2223
sI2223
S'immigrant'
p2224
sI2224
S'legacy'
p2225
sI2225
S'forgo'
p2226
sI2226
S'closer'
p2227
sI2227
S'tenn'
p2228
sI2228
S'reform'
p2229
sI2229
S'nuclear'
p2230
sI2230
S'partisan'
p2231
sI2231
S'favor'
p2232
sI2232
S'state'
p2233
sI2233
S'progress'
p2234
sI2234
S'sabotage'
p2235
sI2235
S'email'
p2236
sI2236
S'ends'
p2237
sI2237
S'ability'
p2238
sI2238
S'importance'
p2239
sI2239
S'deliver'
p2240
sI2240
S'job'
p2241
sI2241
S'joe'
p2242
sI2242
S'merry'
p2243
sI2243
S'abbywambach'
p2244
sI2244
S'nominations'
p2245
sI2245
S'declining'
p2246
sI2246
S'<end>'
p2247
sI2247
S'limits'
p2248
sI2248
S'career'
p2249
sI2249
S'joke'
p2250
sI2250
S'taking'
p2251
sI2251
S'equal'
p2252
sI2252
S'ranked'
p2253
sI2253
S'passing'
p2254
sI2254
S'glorious'
p2255
sI2255
S'wear'
p2256
sI2256
S'diplomats'
p2257
sI2257
S'wall'
p2258
sI2258
S'ca'
p2259
sI2259
S'<beg>'
p2260
sI2260
S'walk'
p2261
sI2261
S'commend'
p2262
sI2262
S'carbon'
p2263
sI2263
S'table'
p2264
sI2264
S'labor'
p2265
sI2265
S'ct'
p2266
sI2266
S'loveislove'
p2267
sI2267
S'discrimination'
p2268
sI2268
S'rhode'
p2269
sI2269
S'willing'
p2270
sI2270
S'treat'
p2271
sI2271
S'hottest'
p2272
sI2272
S'kitchen'
p2273
sI2273
S'louisiana'
p2274
sI2274
S'general'
p2275
sI2275
S'climate'
p2276
sI2276
S'sales'
p2277
sI2277
S'finished'
p2278
sI2278
S'ensuring'
p2279
sI2279
S'mail'
p2280
sI2280
S'kicks'
p2281
sI2281
S'last'
p2282
sI2282
S'an'
p2283
sI2283
S'mourning'
p2284
sI2284
S'homes'
p2285
sI2285
S'criminal'
p2286
sI2286
S'plain'
p2287
sI2287
S'means'
p2288
sI2288
S'nd'
p2289
sI2289
S'harder'
p2290
sI2290
S'choices'
p2291
sI2291
S'will'
p2292
sI2292
S'petition'
p2293
sI2293
S've'
p2294
sI2294
S'almost'
p2295
sI2295
S'heating'
p2296
sI2296
S'vp'
p2297
sI2297
S'dems'
p2298
sI2298
S'lifetime'
p2299
sI2299
S'hearted'
p2300
sI2300
S'partner'
p2301
sI2301
S'sits'
p2302
sI2302
S'education'
p2303
sI2303
S'views'
p2304
sI2304
S'administration'
p2305
sI2305
S'cross'
p2306
sI2306
S'unite'
p2307
sI2307
S'jobsnotcuts'
p2308
sI2308
S'member'
p2309
sI2309
S'unity'
p2310
sI2310
S'largest'
p2311
sI2311
S'party'
p2312
sI2312
S'terrorism'
p2313
sI2313
S'gets'
p2314
sI2314
S'powell'
p2315
sI2315
S'difficult'
p2316
sI2316
S'ball'
p2317
sI2317
S'columbia'
p2318
sI2318
S'premiere'
p2319
sI2319
S'disagree'
p2320
sI2320
S'effect'
p2321
sI2321
S'student'
p2322
sI2322
S'fierce'
p2323
sI2323
S'warming'
p2324
sI2324
S'paycheck'
p2325
sI2325
S'ofa'
p2326
sI2326
S'off'
p2327
sI2327
S'i'
p2328
sI2328
S'weapon'
p2329
sI2329
S'well'
p2330
sI2330
S'fighting'
p2331
sI2331
S'thought'
p2332
sI2332
S'sets'
p2333
sI2333
S'restore'
p2334
sI2334
S'stores'
p2335
sI2335
S'less'
p2336
sI2336
S'moments'
p2337
sI2337
S'wealthy'
p2338
sI2338
S'sources'
p2339
sI2339
S'batteries'
p2340
sI2340
S'casper'
p2341
sI2341
S'protecting'
p2342
sI2342
S'paul'
p2343
sI2343
S'happiness'
p2344
sI2344
S'ads'
p2345
sI2345
S'field'
p2346
sI2346
S'lake'
p2347
sI2347
S'killed'
p2348
sI2348
S'simple'
p2349
sI2349
S'add'
p2350
sI2350
S'preschool'
p2351
sI2351
S'citizen'
p2352
sI2352
S'unprecedented'
p2353
sI2353
S'ought'
p2354
sI2354
S'increased'
p2355
sI2355
S'government'
p2356
sI2356
S'checking'
p2357
sI2357
S'historic'
p2358
sI2358
S'five'
p2359
sI2359
S'know'
p2360
sI2360
S'press'
p2361
sI2361
S'immediately'
p2362
sI2362
S'necessary'
p2363
sI2363
S'like'
p2364
sI2364
S'lost'
p2365
sI2365
S'miami'
p2366
sI2366
S'taping'
p2367
sI2367
S'hosts'
p2368
sI2368
S'lose'
p2369
sI2369
S'become'
p2370
sI2370
S'works'
p2371
sI2371
S'page'
p2372
sI2372
S'kaczynski'
p2373
sI2373
S'because'
p2374
sI2374
S'twitter'
p2375
sI2375
S'delray'
p2376
sI2376
S'choosing'
p2377
sI2377
S'home'
p2378
sI2378
S'ballot'
p2379
sI2379
S'happens'
p2380
sI2380
S'est'
p2381
sI2381
S'lead'
p2382
sI2382
S'severance'
p2383
sI2383
S'mourdock'
p2384
sI2384
S'literally'
p2385
sI2385
S'oppression'
p2386
sI2386
S'rewarding'
p2387
sI2387
S'does'
p2388
sI2388
S'keystone'
p2389
sI2389
S'leader'
p2390
sI2390
S'speakerboehner'
p2391
sI2391
S'deciding'
p2392
sI2392
S'repblumenauer'
p2393
sI2393
S'apostolic'
p2394
sI2394
S'mitt'
p2395
sI2395
S'expansion'
p2396
sI2396
S'host'
p2397
sI2397
S'worthy'
p2398
sI2398
S'loans'
p2399
sI2399
S'raise'
p2400
sI2400
S'gained'
p2401
sI2401
S'about'
p2402
sI2402
S'visions'
p2403
sI2403
S'getting'
p2404
sI2404
S'iamkidpresident'
p2405
sI2405
S'freedom'
p2406
sI2406
S'dependence'
p2407
sI2407
S'shipping'
p2408
sI2408
S'blessings'
p2409
sI2409
S'clooney'
p2410
sI2410
S'introduced'
p2411
sI2411
S'equally'
p2412
sI2412
S'own'
p2413
sI2413
S'letters'
p2414
sI2414
S'owe'
p2415
sI2415
S'washington'
p2416
sI2416
S'commitment'
p2417
sI2417
S'billions'
p2418
sI2418
S'promise'
p2419
sI2419
S'registration'
p2420
sI2420
S'roads'
p2421
sI2421
S'getcovered'
p2422
sI2422
S'firefighter'
p2423
sI2423
S'overtime'
p2424
sI2424
S'describes'
p2425
sI2425
S'biggest'
p2426
sI2426
S'kwanzaa'
p2427
sI2427
S'fiscal'
p2428
sI2428
S'appointing'
p2429
sI2429
S'north'
p2430
sI2430
S'brand'
p2431
sI2431
S'but'
p2432
sI2432
S'delivery'
p2433
sI2433
S'reminds'
p2434
sI2434
S'construction'
p2435
sI2435
S'highest'
p2436
sI2436
S'he'
p2437
sI2437
S'count'
p2438
sI2438
S'challenges'
p2439
sI2439
S'made'
p2440
sI2440
S'tactics'
p2441
sI2441
S'whether'
p2442
sI2442
S'wish'
p2443
sI2443
S'official'
p2444
sI2444
S'grieve'
p2445
sI2445
S'signed'
p2446
sI2446
S'record'
p2447
sI2447
S'dinnerwithbarack'
p2448
sI2448
S'stories'
p2449
sI2449
S'hand'
p2450
sI2450
S'problem'
p2451
sI2451
S'piece'
p2452
sI2452
S'minutes'
p2453
sI2453
S'strengthens'
p2454
sI2454
S'firm'
p2455
sI2455
S'supreme'
p2456
sI2456
S'deaths'
p2457
sI2457
S'universal'
p2458
sI2458
S'romney'
p2459
sI2459
S'pie'
p2460
sI2460
S'goodness'
p2461
sI2461
S'shooting'
p2462
sI2462
S'campus'
p2463
sI2463
S'percent'
p2464
sI2464
S'illinois'
p2465
sI2465
S'other'
p2466
sI2466
S'sick'
p2467
sI2467
S'welcomes'
p2468
sI2468
S'er'
p2469
sI2469
S'francisco'
p2470
sI2470
S'star'
p2471
sI2471
S'respected'
p2472
sI2472
S'demandaction'
p2473
sI2473
S'class'
p2474
sI2474
S'dismantle'
p2475
sI2475
S'stay'
p2476
sI2476
S'margaret'
p2477
sI2477
S'chance'
p2478
sI2478
S'mlkdream'
p2479
sI2479
S'backstage'
p2480
sI2480
S'ceos'
p2481
sI2481
S'repeal'
p2482
sI2482
S'friends'
p2483
sI2483
S'contraceptive'
p2484
sI2484
S'rule'
p2485
sI2485
S'commencement'
p2486
sI2486
S'hikes'
p2487
sI2487
S'understand'
p2488
sI2488
S'defend'
p2489
s.