(dp0
S'trenton'
p1
I0
sS'msgs'
p2
I1
sS'all'
p3
I1281
sS'four'
p4
I3
sS'controversial'
p5
I4
sS'hanging'
p6
I5
sS'oldest'
p7
I6
sS'saved'
p8
I7
sS'romneysbinders'
p9
I8
sS'consider'
p10
I1282
sS'whose'
p11
I69
sS'voter'
p12
I11
sS'electricity'
p13
I12
sS'tweet'
p14
I13
sS'presents'
p15
I14
sS'voted'
p16
I15
sS'under'
p17
I16
sS'slowest'
p18
I17
sS'pride'
p19
I18
sS'onstage'
p20
I19
sS'worth'
p21
I20
sS'supreme'
p22
I2455
sS'legislators'
p23
I21
sS'rescue'
p24
I22
sS'compassion'
p25
I23
sS'void'
p26
I24
sS'rise'
p27
I25
sS'every'
p28
I26
sS'updates'
p29
I27
sS'reforms'
p30
I28
sS'politician'
p31
I1718
sS'bringing'
p32
I30
sS'vast'
p33
I31
sS'tickets'
p34
I32
sS'school'
p35
I33
sS'skills'
p36
I34
sS'pinch'
p37
I35
sS'companies'
p38
I36
sS'solution'
p39
I37
sS'mlkday'
p40
I38
sS'math'
p41
I1069
sS'heading'
p42
I254
sS'methane'
p43
I258
sS'enjoy'
p44
I42
sS'charter'
p45
I43
sS'leaders'
p46
I44
sS'guidelines'
p47
I276
sS'direct'
p48
I46
sS'budget'
p49
I1724
sS'across'
p50
I48
sS'likely'
p51
I49
sS'street'
p52
I50
sS'n'
p53
I51
sS'shining'
p54
I52
sS'even'
p55
I53
sS'deferred'
p56
I1726
sS'solemn'
p57
I55
sS'decisions'
p58
I1292
sS'commemorating'
p59
I57
sS'weren'
p60
I58
sS'liberty'
p61
I59
sS'above'
p62
I62
sS'beater'
p63
I63
sS'new'
p64
I64
sS'ever'
p65
I65
sS'discrimination'
p66
I2267
sS'memorialday'
p67
I66
sS'hero'
p68
I67
sS'zach'
p69
I68
sS'men'
p70
I70
sS'here'
p71
I71
sS'hundreds'
p72
I72
sS'met'
p73
I73
sS'china'
p74
I74
sS'active'
p75
I75
sS'path'
p76
I76
sS'kids'
p77
I77
sS'daughter'
p78
I78
sS'forum'
p79
I79
sS'flooding'
p80
I80
sS'study'
p81
I81
sS'economics'
p82
I82
sS'ignoring'
p83
I83
sS'credit'
p84
I84
sS'military'
p85
I85
sS'changes'
p86
I86
sS'punishment'
p87
I87
sS'golden'
p88
I88
sS'secure'
p89
I89
sS'campaign'
p90
I90
sS'mobility'
p91
I91
sS'fireworks'
p92
I92
sS'reagan'
p93
I93
sS'brought'
p94
I94
sS'doyourjob'
p95
I95
sS'ninety'
p96
I529
sS'moral'
p97
I97
sS'thursday'
p98
I1298
sS'txt'
p99
I99
sS'spoke'
p100
I100
sS'would'
p101
I101
sS'army'
p102
I102
sS'hospital'
p103
I103
sS'century'
p104
I1733
sS'call'
p105
I105
sS'tell'
p106
I106
sS'supporters'
p107
I107
sS'successful'
p108
I108
sS'benefiting'
p109
I109
sS'wars'
p110
I110
sS'adult'
p111
I111
sS'smile'
p112
I1555
sS'hold'
p113
I113
sS'striving'
p114
I114
sS'blocking'
p115
I115
sS'must'
p116
I116
sS'me'
p117
I117
sS'ma'
p118
I691
sS'room'
p119
I119
sS'rights'
p120
I120
sS'pursue'
p121
I121
sS'work'
p122
I122
sS'refusing'
p123
I123
sS'roof'
p124
I124
sS'temperatures'
p125
I125
sS'my'
p126
I126
sS'example'
p127
I127
sS'give'
p128
I128
sS'unjust'
p129
I129
sS'woman'
p130
I1307
sS'reviewing'
p131
I130
sS'want'
p132
I131
sS'counseling'
p133
I132
sS'organizer'
p134
I133
sS'times'
p135
I2114
sS'attract'
p136
I135
sS'guarantee'
p137
I136
sS'end'
p138
I137
sS'recovery'
p139
I138
sS'turn'
p140
I139
sS'provide'
p141
I140
sS'travel'
p142
I141
sS'damage'
p143
I142
sS'machine'
p144
I143
sS'how'
p145
I144
sS'amazing'
p146
I145
sS'writers'
p147
I146
sS'ordinary'
p148
I147
sS'charging'
p149
I148
sS'offshore'
p150
I149
sS'pizza'
p151
I150
sS'beauty'
p152
I151
sS'transforming'
p153
I152
sS'after'
p154
I153
sS'wrong'
p155
I154
sS'lay'
p156
I155
sS'president'
p157
I156
sS'law'
p158
I157
sS'effective'
p159
I158
sS'wins'
p160
I159
sS'homeowners'
p161
I160
sS'appreciate'
p162
I161
sS'lost'
p163
I2364
sS'childhood'
p164
I910
sS'green'
p165
I163
sS'enter'
p166
I164
sS'uninsured'
p167
I165
sS'preventive'
p168
I166
sS'wing'
p169
I167
sS'senators'
p170
I168
sS'office'
p171
I170
sS'deck'
p172
I171
sS'over'
p173
I172
sS'rewarded'
p174
I173
sS'before'
p175
I174
sS'fads'
p176
I175
sS'fit'
p177
I176
sS'lifeline'
p178
I177
sS'polluters'
p179
I178
sS'fix'
p180
I179
sS'saddleback'
p181
I180
sS'writing'
p182
I181
sS'better'
p183
I182
sS'stalemate'
p184
I183
sS'weeks'
p185
I184
sS'easier'
p186
I185
sS'overcome'
p187
I186
sS'then'
p188
I187
sS'them'
p189
I188
sS'smallbusinesssaturday'
p190
I2120
sS'iowa'
p191
I189
sS'prevented'
p192
I190
sS'unemployed'
p193
I191
sS'safe'
p194
I192
sS'break'
p195
I194
sS'moines'
p196
I1321
sS'they'
p197
I196
sS'one'
p198
I916
sS'humanity'
p199
I512
sS'bank'
p200
I198
sS'shadows'
p201
I199
sS'explode'
p202
I200
sS'stimulus'
p203
I201
sS'victory'
p204
I202
sS'reasonable'
p205
I203
sS'farenthold'
p206
I204
sS'meal'
p207
I205
sS'mean'
p208
I206
sS'consolidate'
p209
I207
sS'sciencesaysso'
p210
I208
sS'financial'
p211
I209
sS'concord'
p212
I210
sS'series'
p213
I211
sS'mandates'
p214
I212
sS'celebrating'
p215
I214
sS'trading'
p216
I215
sS'hosted'
p217
I216
sS'navy'
p218
I217
sS'aids'
p219
I218
sS'saturday'
p220
I219
sS'rt'
p221
I220
sS'large'
p222
I1326
sS'driving'
p223
I222
sS'oprah'
p224
I223
sS'god'
p225
I224
sS'cameras'
p226
I225
sS'crucial'
p227
I226
sS'george'
p228
I227
sS'rd'
p229
I228
sS're'
p230
I229
sS'laid'
p231
I230
sS'banning'
p232
I231
sS'got'
p233
I232
sS'gov'
p234
I233
sS'gop'
p235
I234
sS'independence'
p236
I235
sS'arizona'
p237
I236
sS'turning'
p238
I237
sS'given'
p239
I928
sS'free'
p240
I239
sS'standard'
p241
I240
sS'campaigns'
p242
I241
sS'appointments'
p243
I242
sS'immigrationreform'
p244
I243
sS'boosting'
p245
I244
sS'checked'
p246
I245
sS'wanted'
p247
I246
sS'knit'
p248
I247
sS'certified'
p249
I248
sS'created'
p250
I249
sS'starts'
p251
I250
sS'privacy'
p252
I2126
sS'days'
p253
I252
sS'priorities'
p254
I253
sS'local'
p255
I2192
sS'renew'
p256
I255
sS'isn'
p257
I256
sS'arrived'
p258
I257
sS'organize'
p259
I1238
sS'economists'
p260
I260
sS'encouraging'
p261
I261
sS'hearing'
p262
I262
sS'another'
p263
I263
sS'olds'
p264
I264
sS'service'
p265
I265
sS'top'
p266
I266
sS'recruiting'
p267
I267
sS'carry'
p268
I268
sS'needed'
p269
I269
sS'rates'
p270
I270
sS'too'
p271
I271
sS'livelihoods'
p272
I272
sS'purposefully'
p273
I273
sS'john'
p274
I274
sS'filibuster'
p275
I275
sS'grandchildren'
p276
I277
sS'janellemonae'
p277
I278
sS'serve'
p278
I279
sS'took'
p279
I280
sS'deval'
p280
I281
sS'positively'
p281
I282
sS'last'
p282
I2281
sS'showed'
p283
I283
sS'nominate'
p284
I284
sS'immigrants'
p285
I285
sS'second'
p286
I286
sS'binds'
p287
I287
sS'friend'
p288
I936
sS'historical'
p289
I289
sS'feeling'
p290
I290
sS'boston'
p291
I291
sS'mind'
p292
I292
sS'talking'
p293
I293
sS'childcare'
p294
I294
sS'seen'
p295
I295
sS'botswana'
p296
I296
sS'strength'
p297
I297
sS'genuine'
p298
I298
sS'convenient'
p299
I299
sS'responsible'
p300
I300
sS'recommended'
p301
I301
sS'luxury'
p302
I302
sS'doors'
p303
I303
sS'greatest'
p304
I304
sS'takeittothehouse'
p305
I305
sS'citizens'
p306
I306
sS'bruce'
p307
I307
sS'simplify'
p308
I308
sS'mouth'
p309
I309
sS'letter'
p310
I310
sS'claims'
p311
I311
sS'retaining'
p312
I312
sS'inexcusable'
p313
I313
sS'don'
p314
I314
sS'consumers'
p315
I1342
sS'devastating'
p316
I316
sS'm'
p317
I317
sS'dog'
p318
I318
sS'investments'
p319
I319
sS'bracket'
p320
I1886
sS'sources'
p321
I2338
sS'principle'
p322
I321
sS'voting'
p323
I322
sS'consumer'
p324
I323
sS'constance'
p325
I324
sS'came'
p326
I325
sS'saying'
p327
I326
sS'inspire'
p328
I327
sS'retire'
p329
I328
sS'ending'
p330
I329
sS'attempts'
p331
I330
sS'earth'
p332
I331
sS'whitehouse'
p333
I332
sS'thirds'
p334
I333
sS'judges'
p335
I334
sS'dampening'
p336
I335
sS'dosomething'
p337
I336
sS'bush'
p338
I337
sS'deepest'
p339
I338
sS'rich'
p340
I339
sS'folks'
p341
I340
sS'announce'
p342
I341
sS'warmest'
p343
I342
sS'do'
p344
I344
sS'watch'
p345
I345
sS'dc'
p346
I346
sS'coast'
p347
I347
sS'pocket'
p348
I348
sS'spirit'
p349
I349
sS'despite'
p350
I350
sS'report'
p351
I351
sS'haiti'
p352
I352
sS'dr'
p353
I353
sS'proposes'
p354
I354
sS'abetterbargain'
p355
I356
sS'bad'
p356
I357
sS'openly'
p357
I1766
sS'ban'
p358
I359
sS'told'
p359
I360
sS'secretary'
p360
I361
sS'respond'
p361
I362
sS'disaster'
p362
I363
sS'fair'
p363
I364
sS'testing'
p364
I365
sS'voxdotcom'
p365
I366
sS'depends'
p366
I367
sS'decided'
p367
I368
sS'result'
p368
I369
sS'best'
p369
I370
sS'pete'
p370
I371
sS'said'
p371
I372
sS'narrated'
p372
I373
sS'away'
p373
I374
sS'continually'
p374
I375
sS'future'
p375
I946
sS'preserve'
p376
I379
sS'we'
p377
I380
sS'never'
p378
I381
sS'terms'
p379
I382
sS'wears'
p380
I383
sS'nationwide'
p381
I384
sS'personalize'
p382
I385
sS'wi'
p383
I386
sS'wh'
p384
I387
sS'ramps'
p385
I388
sS'news'
p386
I389
sS'debt'
p387
I390
sS'wy'
p388
I391
sS'improve'
p389
I392
sS'protect'
p390
I393
sS'lgbt'
p391
I394
sS'country'
p392
I395
sS'uncertainty'
p393
I396
sS'heating'
p394
I2295
sS'against'
p395
I398
sS'players'
p396
I399
sS'games'
p397
I400
sS'planned'
p398
I401
sS'asked'
p399
I402
sS'and'
p400
I950
sS'tough'
p401
I404
sS'itsonus'
p402
I405
sS'had'
p403
I406
sS'hardworking'
p404
I407
sS'epidemic'
p405
I408
sS'loaded'
p406
I409
sS'trust'
p407
I410
sS'speak'
p408
I411
sS'conference'
p409
I412
sS'strong'
p410
I1363
sS'mobilization'
p411
I414
sS'union'
p412
I415
sS'buffett'
p413
I416
sS'three'
p414
I417
sS'been'
p415
I418
sS'quickly'
p416
I419
sS'much'
p417
I420
sS'livethewage'
p418
I421
sS'interest'
p419
I422
sS'basic'
p420
I423
sS'privilege'
p421
I424
sS'entered'
p422
I425
sS'life'
p423
I426
sS'families'
p424
I427
sS'drugs'
p425
I428
sS'republicans'
p426
I429
sS'worker'
p427
I430
sS'lift'
p428
I431
sS'child'
p429
I432
sS'catch'
p430
I433
sS'chili'
p431
I377
sS'applied'
p432
I435
sS'has'
p433
I436
sS'ahead'
p434
I1367
sS'economies'
p435
I438
sS'air'
p436
I439
sS'near'
p437
I440
sS'ain'
p438
I441
sS'teachers'
p439
I442
sS'aid'
p440
I443
sS'voice'
p441
I444
sS'davenport'
p442
I445
sS'launched'
p443
I446
sS'seven'
p444
I447
sS'thedemocrats'
p445
I96
sS'mexico'
p446
I449
sS'is'
p447
I1012
sS'it'
p448
I451
sS'il'
p449
I452
sS'in'
p450
I453
sS'ia'
p451
I454
sS'campaigning'
p452
I455
sS'controversy'
p453
I456
sS'specter'
p454
I457
sS'trusted'
p455
I458
sS'if'
p456
I459
sS'memorial'
p457
I460
sS'things'
p458
I461
sS'make'
p459
I462
sS'amman'
p460
I463
sS'sidelines'
p461
I464
sS'grows'
p462
I465
sS'fairly'
p463
I466
sS'commonsense'
p464
I467
sS'social'
p465
I1372
sS'workforce'
p466
I469
sS'lyndon'
p467
I470
sS'greeted'
p468
I471
sS'marched'
p469
I472
sS'groundbreaking'
p470
I473
sS'opportunity'
p471
I475
sS'tune'
p472
I476
sS'kid'
p473
I477
sS'vermont'
p474
I478
sS'kept'
p475
I479
sS'programs'
p476
I480
sS'failing'
p477
I481
sS'game'
p478
I1791
sS'academic'
p479
I483
sS'dallasmemorial'
p480
I484
sS'mother'
p481
I485
sS'dadt'
p482
I486
sS'the'
p483
I487
sS'corporate'
p484
I488
sS'yours'
p485
I489
sS'left'
p486
I490
sS'seasonal'
p487
I491
sS'spurred'
p488
I492
sS'capitol'
p489
I493
sS'just'
p490
I494
sS'unemployment'
p491
I495
sS'photo'
p492
I496
sS'sporting'
p493
I497
sS'aside'
p494
I964
sS'kinko'
p495
I499
sS'thanks'
p496
I500
sS'facts'
p497
I501
sS'yet'
p498
I502
sS'candidate'
p499
I503
sS'photographer'
p500
I504
sS'josh'
p501
I505
sS'spread'
p502
I506
sS'brainstorming'
p503
I507
sS'easy'
p504
I508
sS'prison'
p505
I509
sS'save'
p506
I510
sS'hat'
p507
I511
sS'jaylenotonight'
p508
I842
sS'gave'
p509
I513
sS'maya'
p510
I515
sS'breaks'
p511
I516
sS'possible'
p512
I517
sS'possibly'
p513
I518
sS'birth'
p514
I193
sS'judge'
p515
I520
sS'shadow'
p516
I521
sS'poses'
p517
I522
sS'dignity'
p518
I524
sS'orlando'
p519
I525
sS'arrivals'
p520
I526
sS'specific'
p521
I527
sS'remind'
p522
I528
sS'steps'
p523
I530
sS'night'
p524
I531
sS'security'
p525
I532
sS'matchup'
p526
I533
sS'attorney'
p527
I535
sS'right'
p528
I536
sS'honored'
p529
I537
sS'crowd'
p530
I538
sS'people'
p531
I539
sS'cybersecurity'
p532
I540
sS'intern'
p533
I541
sS'election'
p534
I542
sS'nytimes'
p535
I2160
sS'total'
p536
I544
sS'combat'
p537
I2161
sS'for'
p538
I546
sS'bottom'
p539
I547
sS'saramvalentine'
p540
I548
sS'fox'
p541
I550
sS'cordray'
p542
I551
sS'everything'
p543
I552
sS'sotu'
p544
I681
sS'denied'
p545
I554
sS'cnn'
p546
I555
sS'christmas'
p547
I556
sS'itgetsbetter'
p548
I557
sS'strongerwithobama'
p549
I558
sS'columbus'
p550
I559
sS'bold'
p551
I560
sS'defend'
p552
I2488
sS'pose'
p553
I561
sS'graduates'
p554
I562
sS'binder'
p555
I563
sS'keeper'
p556
I756
sS'post'
p557
I565
sS'manufacturing'
p558
I566
sS'super'
p559
I567
sS'plug'
p560
I771
sS'chilean'
p561
I569
sS'dunking'
p562
I570
sS'dnc'
p563
I571
sS'attacks'
p564
I572
sS'dollars'
p565
I573
sS'months'
p566
I574
sS'assault'
p567
I976
sS'o'
p568
I576
sS'undocumented'
p569
I577
sS'dinner'
p570
I578
sS'ensure'
p571
I579
sS'commit'
p572
I580
sS'efforts'
p573
I581
sS'raised'
p574
I582
sS'presence'
p575
I583
sS'civil'
p576
I584
sS'pays'
p577
I585
sS'down'
p578
I586
sS'thankful'
p579
I587
sS'magazines'
p580
I588
sS'old'
p581
I589
sS'east'
p582
I590
sS'deal'
p583
I591
sS'support'
p584
I592
sS'wad'
p585
I593
sS'legislation'
p586
I594
sS'approximate'
p587
I595
sS'fight'
p588
I596
sS'fought'
p589
I597
sS'way'
p590
I598
sS'fairness'
p591
I1290
sS'was'
p592
I599
sS'war'
p593
I600
sS'launching'
p594
I601
sS'happy'
p595
I602
sS'lowest'
p596
I603
sS'head'
p597
I604
sS'form'
p598
I962
sS'offer'
p599
I606
sS'becoming'
p600
I608
sS'differences'
p601
I609
sS'removes'
p602
I610
sS'deny'
p603
I2168
sS'heat'
p604
I612
sS'hear'
p605
I613
sS'true'
p606
I614
sS'fort'
p607
I615
sS'congratulations'
p608
I616
sS'humbled'
p609
I617
sS'builds'
p610
I1013
sS'reproductive'
p611
I619
sS'streaming'
p612
I1805
sS'until'
p613
I621
sS'mth'
p614
I1035
sS'economic'
p615
I1807
sS'lays'
p616
I623
sS'rehire'
p617
I624
sS'fulfills'
p618
I625
sS'promises'
p619
I626
sS'liberal'
p620
I1068
sS'wealthy'
p621
I2337
sS'covers'
p622
I629
sS'evidence'
p623
I1084
sS'sometime'
p624
I631
sS'exist'
p625
I632
sS'promised'
p626
I633
sS'shines'
p627
I634
sS'americaleads'
p628
I1110
sS'nh'
p629
I636
sS'nj'
p630
I637
sS'weakened'
p631
I1125
sS'no'
p632
I1127
sS'daca'
p633
I640
sS'stake'
p634
I1133
sS'when'
p635
I642
sS'reality'
p636
I1141
sS'setting'
p637
I644
sS'role'
p638
I645
sS'holding'
p639
I646
sS'digital'
p640
I647
sS'roll'
p641
I648
sS'garland'
p642
I649
sS'welcome'
p643
I650
sS'update'
p644
I651
sS'phony'
p645
I652
sS'parenthood'
p646
I653
sS'class'
p647
I2473
sS'invested'
p648
I654
sS'weekend'
p649
I655
sS'died'
p650
I656
sS'billion'
p651
I657
sS'longer'
p652
I1233
sS'together'
p653
I659
sS'premiums'
p654
I660
sS'reception'
p655
I661
sS'time'
p656
I662
sS'push'
p657
I663
sS'serious'
p658
I664
sS'backward'
p659
I665
sS'profits'
p660
I666
sS'equalizer'
p661
I667
sS'corps'
p662
I668
sS'diplomacy'
p663
I669
sS'dance'
p664
I670
sS'global'
p665
I671
sS'focus'
p666
I672
sS'leads'
p667
I674
sS'grateful'
p668
I675
sS'vet'
p669
I676
sS'obamacare'
p670
I677
sS'environment'
p671
I678
sS'answered'
p672
I679
sS'finally'
p673
I680
sS'asking'
p674
I553
sS'marks'
p675
I682
sS'veterans'
p676
I683
sS'eliminate'
p677
I1814
sS'brown'
p678
I685
sS'paychecks'
p679
I686
sS'keeping'
p680
I1405
sS'congratulating'
p681
I688
sS'choice'
p682
I689
sS'lynch'
p683
I690
sS'join'
p684
I118
sS'minute'
p685
I693
sS'dim'
p686
I694
sS'solves'
p687
I695
sS'did'
p688
I696
sS'die'
p689
I697
sS'dig'
p690
I698
sS'proposals'
p691
I699
sS'hawaii'
p692
I673
sS'skewed'
p693
I701
sS'magnet'
p694
I702
sS'p'
p695
I703
sS'thanksgivukkah'
p696
I704
sS'team'
p697
I705
sS'affordablecare'
p698
I706
sS'round'
p699
I707
sS'shave'
p700
I708
sS'prevent'
p701
I709
sS'brave'
p702
I710
sS'says'
p703
I711
sS'strickland'
p704
I712
sS'pregnancies'
p705
I713
sS'sign'
p706
I714
sS'romnesia'
p707
I715
sS'cost'
p708
I716
sS'run'
p709
I1819
sS'educate'
p710
I718
sS'adds'
p711
I719
sS'constitution'
p712
I720
sS'shares'
p713
I721
sS'uniform'
p714
I722
sS'immigrationaction'
p715
I723
sS'reply'
p716
I724
sS'celebrates'
p717
I725
sS'filled'
p718
I726
sS'supporting'
p719
I727
sS'bo'
p720
I1821
sS'marchforinnov'
p721
I729
sS'learn'
p722
I1411
sS'water'
p723
I732
sS'abandon'
p724
I1412
sS'groups'
p725
I734
sS'address'
p726
I735
sS'alone'
p727
I736
sS'along'
p728
I737
sS'teacher'
p729
I738
sS'change'
p730
I739
sS'wait'
p731
I740
sS'sending'
p732
I741
sS'enroll'
p733
I742
sS'male'
p734
I1413
sS'healthy'
p735
I744
sS'jay'
p736
I2185
sS'wherever'
p737
I746
sS'step'
p738
I1823
sS'accomplished'
p739
I748
sS'boo'
p740
I749
sS'reclaim'
p741
I751
sS'love'
p742
I752
sS'mccormick'
p743
I753
sS'extra'
p744
I754
sS'bloody'
p745
I755
sS'losing'
p746
I564
sS'flexibility'
p747
I757
sS'patriots'
p748
I758
sS'crisis'
p749
I759
sS'everybody'
p750
I760
sS'working'
p751
I761
sS'prove'
p752
I762
sS'visit'
p753
I763
sS'predictions'
p754
I764
sS'by'
p755
I1827
sS'insider'
p756
I766
sS'live'
p757
I767
sS'memory'
p758
I768
sS'msg'
p759
I769
sS'today'
p760
I770
sS'chapter'
p761
I568
sS'kerry'
p762
I772
sS'afford'
p763
I773
sS'effort'
p764
I774
sS'behalf'
p765
I775
sS'fly'
p766
I776
sS'rebounding'
p767
I777
sS'anything'
p768
I1831
sS'car'
p769
I779
sS'rutherford'
p770
I780
sS'flu'
p771
I781
sS'believes'
p772
I782
sS'hardest'
p773
I783
sS'values'
p774
I784
sS'can'
p775
I785
sS'growing'
p776
I786
sS'making'
p777
I787
sS'thekidsneedtoknow'
p778
I788
sS'streak'
p779
I789
sS'spy'
p780
I790
sS'dedicated'
p781
I791
sS'valentines'
p782
I792
sS'figure'
p783
I793
sS'predict'
p784
I794
sS'awesome'
p785
I795
sS'millionaires'
p786
I796
sS'heard'
p787
I797
sS'<pad>'
p788
I798
sS'allowed'
p789
I799
sS'counting'
p790
I800
sS'pink'
p791
I801
sS'unwavering'
p792
I802
sS'bankrupt'
p793
I803
sS'secured'
p794
I804
sS'eloquent'
p795
I805
sS'giveaways'
p796
I806
sS'sunday'
p797
I807
sS'vital'
p798
I808
sS'fourth'
p799
I809
sS'speaks'
p800
I810
sS'sworn'
p801
I811
sS'pathway'
p802
I812
sS'springfield'
p803
I813
sS'economy'
p804
I814
sS'map'
p805
I815
sS'staying'
p806
I816
sS'information'
p807
I1425
sS'may'
p808
I818
sS'sacrifice'
p809
I819
sS'use'
p810
I1822
sS'crashed'
p811
I820
sS'heartbreaking'
p812
I821
sS'birthday'
p813
I822
sS'designed'
p814
I823
sS'heroes'
p815
I824
sS'employers'
p816
I1009
sS'guys'
p817
I826
sS'grow'
p818
I827
sS'man'
p819
I829
sS'classroom'
p820
I830
sS'remember'
p821
I831
sS'johnson'
p822
I832
sS'st'
p823
I833
sS'so'
p824
I835
sS'african'
p825
I836
sS'marriageequality'
p826
I837
sS'tall'
p827
I838
sS'talk'
p828
I839
sS'typical'
p829
I840
sS'exclusive'
p830
I841
sS'midnight'
p831
I843
sS'years'
p832
I845
sS'hiring'
p833
I846
sS'cuts'
p834
I847
sS'cold'
p835
I849
sS'still'
p836
I850
sS'texan'
p837
I851
sS'thank'
p838
I852
sS'jim'
p839
I853
sS'continue'
p840
I1795
sS'tweets'
p841
I854
sS'ours'
p842
I855
sS'hanks'
p843
I856
sS'bipartisan'
p844
I857
sS'loophole'
p845
I858
sS'texas'
p846
I859
sS'civilian'
p847
I860
sS'moms'
p848
I861
sS'killer'
p849
I862
sS'nation'
p850
I863
sS'parkman'
p851
I864
sS'course'
p852
I2204
sS'half'
p853
I865
sS'not'
p854
I866
sS'nov'
p855
I867
sS'now'
p856
I868
sS'hall'
p857
I869
sS'term'
p858
I870
sS'equality'
p859
I871
sS'name'
p860
I872
sS'january'
p861
I213
sS'didn'
p862
I874
sS'gamble'
p863
I875
sS'quarter'
p864
I876
sS'weighted'
p865
I877
sS'fired'
p866
I878
sS'ed'
p867
I879
sS'breakthrough'
p868
I880
sS'begun'
p869
I881
sS'year'
p870
I882
sS'et'
p871
I883
sS'happen'
p872
I607
sS'morning'
p873
I885
sS'intended'
p874
I1122
sS'hcr'
p875
I887
sS'ernestmoniz'
p876
I888
sS'ultimately'
p877
I889
sS'increase'
p878
I890
sS'mess'
p879
I891
sS'imperative'
p880
I892
sS'internet'
p881
I893
sS'shows'
p882
I894
sS'earlier'
p883
I895
sS'theory'
p884
I896
sS'cars'
p885
I897
sS'million'
p886
I898
sS'grandma'
p887
I899
sS'obligation'
p888
I900
sS'grab'
p889
I2214
sS'card'
p890
I902
sS'care'
p891
I903
sS'couldn'
p892
I904
sS'amanda'
p893
I1020
sS'thing'
p894
I906
sS'indomitable'
p895
I1441
sS'place'
p896
I908
sS'loretta'
p897
I909
sS'think'
p898
I162
sS'first'
p899
I911
sS'cheese'
p900
I912
sS'saving'
p901
I913
sS'xl'
p902
I914
sS'coming'
p903
I1443
sS'yourself'
p904
I197
sS'americans'
p905
I917
sS'long'
p906
I1850
sS'directly'
p907
I919
sS'vote'
p908
I920
sS'corporations'
p909
I921
sS'message'
p910
I922
sS'open'
p911
I923
sS'tomorrow'
p912
I924
sS'discharged'
p913
I925
sS'millions'
p914
I926
sS'city'
p915
I927
sS'little'
p916
I238
sS'sheet'
p917
I929
sS'trillion'
p918
I930
sS'anyone'
p919
I931
sS'tragic'
p920
I932
sS'lobbyists'
p921
I933
sS'convention'
p922
I934
sS'white'
p923
I935
sS'speaking'
p924
I288
sS'gives'
p925
I937
sS'eyes'
p926
I938
sS'that'
p927
I939
sS'season'
p928
I940
sS'cops'
p929
I941
sS'hartford'
p930
I942
sS'than'
p931
I943
sS'television'
p932
I944
sS'protected'
p933
I474
sS'were'
p934
I947
sS'cards'
p935
I948
sS'russia'
p936
I949
sS'pre'
p937
I403
sS'addressing'
p938
I951
sS'dcck'
p939
I750
sS'petesessions'
p940
I953
sS'turned'
p941
I954
sS'voices'
p942
I955
sS'say'
p943
I956
sS'any'
p944
I958
sS'sat'
p945
I959
sS'giffords'
p946
I960
sS'prosperity'
p947
I961
sS'offering'
p948
I605
sS'veteran'
p949
I963
sS'ideas'
p950
I498
sS'take'
p951
I965
sS'online'
p952
I966
sS'performance'
p953
I967
sS'personalized'
p954
I968
sS'urge'
p955
I969
sS'sure'
p956
I970
sS'track'
p957
I971
sS'price'
p958
I972
sS'keeps'
p959
I973
sS'paid'
p960
I974
sS'mammograms'
p961
I975
sS'donation'
p962
I575
sS'printed'
p963
I977
sS'remarks'
p964
I978
sS'america'
p965
I979
sS'tenn'
p966
I2227
sS'michelle'
p967
I981
sS'average'
p968
I982
sS'proud'
p969
I983
sS'steady'
p970
I984
sS'drive'
p971
I985
sS'order'
p972
I986
sS'federal'
p973
I1032
sS'axe'
p974
I988
sS'laws'
p975
I989
sS'walking'
p976
I990
sS'shot'
p977
I991
sS'show'
p978
I992
sS'recipe'
p979
I993
sS'ground'
p980
I995
sS'deportation'
p981
I996
sS'raisethewage'
p982
I997
sS'gulf'
p983
I998
sS'whcd'
p984
I999
sS'pump'
p985
I994
sS'crime'
p986
I1001
sS'only'
p987
I1002
sS'going'
p988
I1003
sS'believing'
p989
I1004
sS'nhlblackhawks'
p990
I1005
sS'congressional'
p991
I1006
sS'get'
p992
I1007
sS'reps'
p993
I1008
sS'truly'
p994
I825
sS'nearly'
p995
I1010
sS'progress'
p996
I2233
sS'gen'
p997
I1011
sS'lovewins'
p998
I618
sS'regarding'
p999
I1014
sS'resource'
p1000
I1015
sS'repflores'
p1001
I1016
sS'joebiden'
p1002
I1017
sS'summary'
p1003
I945
sS'paper'
p1004
I1461
sS'asne'
p1005
I1019
sS'where'
p1006
I905
sS'vision'
p1007
I1021
sS'ignored'
p1008
I1022
sS'seat'
p1009
I1023
sS'elected'
p1010
I1025
sS'college'
p1011
I1026
sS'apologies'
p1012
I1027
sS'stanley'
p1013
I1028
sS'equalpay'
p1014
I1029
sS'madison'
p1015
I1030
sS'mortgage'
p1016
I1031
sS'ways'
p1017
I987
sS'alarming'
p1018
I1033
sS'seekers'
p1019
I1034
sS'tucson'
p1020
I622
sS'weapons'
p1021
I1036
sS'enough'
p1022
I1000
sS'between'
p1023
I1038
sS'affecting'
p1024
I1039
sS'jobsnow'
p1025
I1040
sS'checks'
p1026
I1041
sS'caucus'
p1027
I1042
sS'affordable'
p1028
I1043
sS'notice'
p1029
I1044
sS'infrastructure'
p1030
I1045
sS'jobs'
p1031
I1046
sS'dome'
p1032
I1047
sS'blame'
p1033
I1048
sS'dhsgov'
p1034
I1049
sS'hurts'
p1035
I1050
sS'hand'
p1036
I2449
sS'come'
p1037
I1051
sS'talented'
p1038
I1052
sS'many'
p1039
I1053
sS'region'
p1040
I1054
sS'malia'
p1041
I1872
sS'enabling'
p1042
I1056
sS's'
p1043
I1057
sS'berry'
p1044
I1058
sS'highlights'
p1045
I1059
sS'senator'
p1046
I1060
sS'groundhog'
p1047
I1061
sS'comes'
p1048
I1062
sS'merry'
p1049
I2242
sS'color'
p1050
I1064
sS'period'
p1051
I1065
sS'enrollment'
p1052
I1722
sS'denver'
p1053
I1066
sS'learning'
p1054
I1067
sS'proved'
p1055
I627
sS'chag'
p1056
I1873
sS'destroyed'
p1057
I1070
sS'intrude'
p1058
I1071
sS'cares'
p1059
I1072
sS'west'
p1060
I1073
sS'ledbetter'
p1061
I1074
sS'mark'
p1062
I1075
sS'combined'
p1063
I1076
sS'featuring'
p1064
I1077
sS'wants'
p1065
I1241
sS'direction'
p1066
I1079
sS'shopping'
p1067
I1080
sS'boehnershutdown'
p1068
I1081
sS'photos'
p1069
I1082
sS'ferrell'
p1070
I630
sS'champions'
p1071
I1085
sS'millionandcounting'
p1072
I1302
sS'case'
p1073
I1087
sS'these'
p1074
I1088
sS'wealthiest'
p1075
I1089
sS'worried'
p1076
I1018
sS'trick'
p1077
I1090
sS'cast'
p1078
I1091
sS'ongoing'
p1079
I1092
sS'policies'
p1080
I1093
sS'promising'
p1081
I1094
sS'situation'
p1082
I1095
sS'donors'
p1083
I1096
sS'commander'
p1084
I1097
sS'middle'
p1085
I1098
sS'evening'
p1086
I1475
sS'embrace'
p1087
I1100
sS'sameach'
p1088
I1101
sS'affected'
p1089
I1102
sS'technology'
p1090
I1103
sS'everyday'
p1091
I1104
sS'worry'
p1092
I1105
sS'different'
p1093
I1106
sS'doctor'
p1094
I1107
sS'pay'
p1095
I1108
sS'same'
p1096
I1109
sS'check'
p1097
I635
sS'speech'
p1098
I1111
sS'underestimate'
p1099
I1112
sS'reminder'
p1100
I1113
sS'events'
p1101
I1115
sS'week'
p1102
I1116
sS'oil'
p1103
I1117
sS'centuries'
p1104
I1118
sS'applaud'
p1105
I1119
sS'running'
p1106
I1120
sS'statue'
p1107
I1121
sS'changing'
p1108
I1123
sS'renewable'
p1109
I1124
sS'pledging'
p1110
I638
sS'pennsylvania'
p1111
I1126
sS'floor'
p1112
I639
sS'severe'
p1113
I1128
sS'costs'
p1114
I1129
sS'relief'
p1115
I1130
sS'bodies'
p1116
I1131
sS'summer'
p1117
I1132
sS'nc'
p1118
I641
sS'being'
p1119
I1134
sS'money'
p1120
I1135
sS'guided'
p1121
I1136
sS'sights'
p1122
I1137
sS'actions'
p1123
I1138
sS'youwillnotbetakenseriouslyif'
p1124
I1139
sS'polish'
p1125
I1659
sS'ofafallsummit'
p1126
I643
sS'speed'
p1127
I1142
sS'weekly'
p1128
I1143
sS'death'
p1129
I1144
sS'thinking'
p1130
I1145
sS'except'
p1131
I1146
sS'blog'
p1132
I1147
sS'lets'
p1133
I1148
sS'thoughts'
p1134
I1149
sS'real'
p1135
I1150
sS'consumption'
p1136
I1983
sS'around'
p1137
I1151
sS'romneyeconomics'
p1138
I1152
sS'read'
p1139
I1153
sS'irandeal'
p1140
I1154
sS'selma'
p1141
I1155
sS'virginia'
p1142
I1156
sS'early'
p1143
I1157
sS'mom'
p1144
I1158
sS'world'
p1145
I1159
sS'disappointed'
p1146
I1160
sS'fortune'
p1147
I1161
sS'kennedy'
p1148
I1162
sS'patrick'
p1149
I1163
sS'facing'
p1150
I1165
sS'chamber'
p1151
I1166
sS'benefit'
p1152
I1167
sS'donations'
p1153
I1168
sS't'
p1154
I1169
sS'dontdoublemyrate'
p1155
I1170
sS'fully'
p1156
I1484
sS'served'
p1157
I1172
sS'endorsed'
p1158
I1173
sS'reduced'
p1159
I1174
sS'wedemandavote'
p1160
I1176
sS'moving'
p1161
I1753
sS'competition'
p1162
I1177
sS'thinks'
p1163
I1178
sS'passions'
p1164
I1179
sS'highest'
p1165
I2435
sS'recorded'
p1166
I1180
sS'legal'
p1167
I1181
sS'conservative'
p1168
I1182
sS'habits'
p1169
I1486
sS'deficit'
p1170
I1184
sS'ct'
p1171
I2265
sS'restoring'
p1172
I1186
sS'business'
p1173
I1187
sS'sensible'
p1174
I1188
sS'each'
p1175
I1189
sS'broken'
p1176
I1190
sS'leadership'
p1177
I1191
sS'throw'
p1178
I1192
sS'manufacturer'
p1179
I1193
sS'on'
p1180
I1194
sS'aca'
p1181
I1195
sS'central'
p1182
I1196
sS'package'
p1183
I1197
sS'island'
p1184
I1198
sS'industry'
p1185
I1199
sS'violence'
p1186
I1200
sS'favorite'
p1187
I1201
sS'side'
p1188
I378
sS'practical'
p1189
I1204
sS'medicare'
p1190
I1205
sS'stand'
p1191
I1206
sS'act'
p1192
I1207
sS'or'
p1193
I1208
sS'road'
p1194
I1209
sS'op'
p1195
I1210
sS'whites'
p1196
I1211
sS'image'
p1197
I1212
sS'blessed'
p1198
I1213
sS'wrongagainryan'
p1199
I1214
sS'accounts'
p1200
I1215
sS'dreaming'
p1201
I1216
sS'watchdog'
p1202
I1217
sS'your'
p1203
I1218
sS'legacy'
p1204
I2224
sS'her'
p1205
I1219
sS'aren'
p1206
I1220
sS'there'
p1207
I1221
sS'hey'
p1208
I1222
sS'start'
p1209
I1223
sS'lot'
p1210
I1224
sS'hard'
p1211
I1495
sS'strikes'
p1212
I1227
sS'gore'
p1213
I1229
sS'costco'
p1214
I1230
sS'with'
p1215
I1231
sS'proposal'
p1216
I1890
sS'happening'
p1217
I658
sS'extend'
p1218
I1234
sS'hire'
p1219
I1235
sS'fraud'
p1220
I1236
sS'bucket'
p1221
I1237
sS'politically'
p1222
I1239
sS'agree'
p1223
I1240
sS'collegeopportunity'
p1224
I1078
sS'intents'
p1225
I1242
sS'taylor'
p1226
I1243
sS'ad'
p1227
I1244
sS'videos'
p1228
I1245
sS'ak'
p1229
I1246
sS'am'
p1230
I1247
sS'al'
p1231
I1248
sS'deep'
p1232
I1249
sS'fellow'
p1233
I1250
sS'as'
p1234
I1251
sS'at'
p1235
I1252
sS'trickled'
p1236
I1253
sS'politics'
p1237
I1254
sS'fill'
p1238
I1255
sS'again'
p1239
I1256
sS'yom'
p1240
I1257
sS'beyond'
p1241
I1503
sS'deserve'
p1242
I1258
sS'insurance'
p1243
I1504
sS'tight'
p1244
I1260
sS'readytowork'
p1245
I1261
sS'you'
p1246
I1262
sS'poor'
p1247
I1263
sS'shutdowns'
p1248
I1264
sS'congress'
p1249
I1265
sS'students'
p1250
I1266
sS'important'
p1251
I1267
sS'massachusetts'
p1252
I1268
sS'coverage'
p1253
I1269
sS'tackle'
p1254
I1270
sS'finals'
p1255
I1271
sS'building'
p1256
I1272
sS'shipping'
p1257
I2407
sS'calls'
p1258
I1273
sS'invest'
p1259
I1274
sS'odds'
p1260
I1275
sS'repay'
p1261
I1276
sS'u'
p1262
I1277
sS'nelson'
p1263
I1278
sS'overseas'
p1264
I1279
sS'starting'
p1265
I1280
sS'colleges'
p1266
I2
sS'forget'
p1267
I9
sS'founder'
p1268
I1283
sS'grassroots'
p1269
I1284
sS'groundwork'
p1270
I1285
sS'caused'
p1271
I1286
sS'month'
p1272
I1287
sS'founded'
p1273
I1288
sS'deadline'
p1274
I1289
sS'welfare'
p1275
I45
sS'follow'
p1276
I1291
sS'religious'
p1277
I56
sS'children'
p1278
I1293
sS'tx'
p1279
I1294
sS'tv'
p1280
I1295
sS'pledged'
p1281
I1296
sS'wyoming'
p1282
I1297
sS'opportunities'
p1283
I98
sS'former'
p1284
I1299
sS'opportunityforall'
p1285
I1300
sS'to'
p1286
I1301
sS'those'
p1287
I1086
sS'th'
p1288
I1303
sS'safety'
p1289
I1515
sS'lawmakers'
p1290
I1305
sS'mandela'
p1291
I1306
sS'thisiswhy'
p1292
I1024
sS'worse'
p1293
I1308
sS'sitting'
p1294
I1309
sS'very'
p1295
I1310
sS'sasha'
p1296
I1312
sS'sons'
p1297
I1313
sS'decide'
p1298
I1314
sS'fall'
p1299
I1315
sS'awful'
p1300
I1316
sS'ticket'
p1301
I1317
sS'difference'
p1302
I1318
sS'condition'
p1303
I1319
sS'treating'
p1304
I1320
sS'heaven'
p1305
I195
sS'recommit'
p1306
I1322
sS'list'
p1307
I1323
sS'joined'
p1308
I1324
sS'warrenbuffett'
p1309
I1325
sS'reminding'
p1310
I221
sS'lesbians'
p1311
I1327
sS'small'
p1312
I1328
sS'angelou'
p1313
I1329
sS'tea'
p1314
I1330
sS'ted'
p1315
I1331
sS'past'
p1316
I1332
sS'go'
p1317
I1913
sS'rate'
p1318
I1334
sS'pass'
p1319
I1335
sS'canvass'
p1320
I1336
sS'harder'
p1321
I2289
sS'womensucceed'
p1322
I1337
sS'investment'
p1323
I1338
sS'conscience'
p1324
I1339
sS'what'
p1325
I1340
sS'stood'
p1326
I1341
sS'richard'
p1327
I315
sS'clock'
p1328
I1343
sS'investing'
p1329
I1344
sS'deeply'
p1330
I1345
sS'anniversary'
p1331
I1346
sS'crush'
p1332
I1347
sS'version'
p1333
I1348
sS'scientists'
p1334
I1349
sS'tribute'
p1335
I1350
sS'public'
p1336
I1351
sS'movement'
p1337
I1353
sS'hasn'
p1338
I1354
sS'full'
p1339
I1355
sS'iran'
p1340
I1356
sS'answers'
p1341
I1357
sS'hours'
p1342
I1358
sS'shouldn'
p1343
I1359
sS'actonjobs'
p1344
I1360
sS'investigating'
p1345
I1361
sS'november'
p1346
I1362
sS'iraq'
p1347
I413
sS'observing'
p1348
I1364
sS'tragedy'
p1349
I1365
sS'speeches'
p1350
I1366
sS'leveling'
p1351
I437
sS'inspired'
p1352
I1368
sS'allows'
p1353
I1369
sS'airport'
p1354
I1370
sS'healthier'
p1355
I1371
sS'pick'
p1356
I468
sS'action'
p1357
I1373
sS'options'
p1358
I1374
sS'sticking'
p1359
I1375
sS'via'
p1360
I1376
sS'toughness'
p1361
I1377
sS'family'
p1362
I1378
sS'suddenly'
p1363
I1379
sS'father'
p1364
I1380
sS'wesleyan'
p1365
I1381
sS'put'
p1366
I1526
sS'aimed'
p1367
I1383
sS'detailsmatter'
p1368
I1384
sS'armed'
p1369
I1385
sS'takes'
p1370
I1386
sS'iraqi'
p1371
I1387
sS'texting'
p1372
I1388
sS'two'
p1373
I1389
sS'taken'
p1374
I1390
sS'authorization'
p1375
I1391
sS'more'
p1376
I1392
sS'israel'
p1377
I1393
sS'door'
p1378
I1394
sS'knows'
p1379
I1395
sS'pennypritzker'
p1380
I1396
sS'iowans'
p1381
I1397
sS'company'
p1382
I1398
sS'notbackingdown'
p1383
I1399
sS'excuse'
p1384
I1400
sS'landed'
p1385
I1401
sS'tees'
p1386
I1402
sS'town'
p1387
I1403
sS'vp'
p1388
I2296
sS'none'
p1389
I687
sS'hour'
p1390
I1406
sS'dems'
p1391
I2297
sS'science'
p1392
I1407
sS'des'
p1393
I1408
sS'timryan'
p1394
I1409
sS'resources'
p1395
I1925
sS'v'
p1396
I730
sS'michelleobama'
p1397
I733
sS'dec'
p1398
I743
sS'history'
p1399
I1414
sS'beautiful'
p1400
I1415
sS'stubborn'
p1401
I1416
sS'challenging'
p1402
I1417
sS'share'
p1403
I1418
sS'states'
p1404
I1419
sS'biden'
p1405
I1420
sS'minimum'
p1406
I1421
sS'protects'
p1407
I1422
sS'numbers'
p1408
I1423
sS'sense'
p1409
I1424
sS'huge'
p1410
I817
sS'needs'
p1411
I1426
sS'court'
p1412
I1427
sS'goal'
p1413
I1428
sS'rather'
p1414
I1429
sS'stickers'
p1415
I1430
sS'plans'
p1416
I1437
sS'breaking'
p1417
I1431
sS'randyneugebauer'
p1418
I1432
sS'naturbanleague'
p1419
I1433
sS'standwithourfuture'
p1420
I1434
sS'fed'
p1421
I1980
sS'hugs'
p1422
I1435
sS'hottest'
p1423
I2271
sS'plant'
p1424
I1436
sS'tried'
p1425
I886
sS'advice'
p1426
I1438
sS'frills'
p1427
I1439
sS'reflect'
p1428
I1440
sS'plane'
p1429
I907
sS'ff'
p1430
I1442
sS'waves'
p1431
I915
sS'response'
p1432
I1444
sS'a'
p1433
I1445
sS'refuse'
p1434
I1446
sS'register'
p1435
I1447
sS'crippling'
p1436
I1448
sS'responsibility'
p1437
I1449
sS'fundamental'
p1438
I1450
sS'banks'
p1439
I1451
sS'facebook'
p1440
I1930
sS'dream'
p1441
I1453
sS'playing'
p1442
I1454
sS'help'
p1443
I1455
sS'finalized'
p1444
I1456
sS'september'
p1445
I1457
sS'developed'
p1446
I1458
sS'soon'
p1447
I1459
sS'held'
p1448
I1460
sS'already'
p1449
I259
sS'through'
p1450
I1462
sS'signs'
p1451
I1463
sS'avenue'
p1452
I1464
sS'its'
p1453
I1465
sS'renewui'
p1454
I1466
sS'style'
p1455
I957
sS'actually'
p1456
I1468
sS'late'
p1457
I1469
sS'absence'
p1458
I1470
sS'penn'
p1459
I1472
sS'might'
p1460
I1473
sS'arguments'
p1461
I1474
sS'good'
p1462
I1099
sS'somebody'
p1463
I1476
sS'primary'
p1464
I1477
sS'geopolitical'
p1465
I1478
sS'newsflash'
p1466
I1479
sS'icymi'
p1467
I1480
sS'milestone'
p1468
I1481
sS'communities'
p1469
I1482
sS'actionsummit'
p1470
I2183
sS'bigger'
p1471
I1483
sS'always'
p1472
I1171
sS'someone'
p1473
I1485
sS'inequality'
p1474
I1183
sS'stopped'
p1475
I1487
sS'barrels'
p1476
I1488
sS'status'
p1477
I1489
sS'everyone'
p1478
I1490
sS'mental'
p1479
I1491
sS'generation'
p1480
I1492
sS'house'
p1481
I1493
sS'energy'
p1482
I1494
sS'repkeygranger'
p1483
I1225
sS'reduce'
p1484
I1496
sS'idea'
p1485
I1497
sS'gun'
p1486
I700
sS'finish'
p1487
I1499
sS'ryan'
p1488
I1937
sS'fist'
p1489
I1501
sS'blues'
p1490
I1502
sS'standards'
p1491
I1311
sS'event'
p1492
I1259
sS'really'
p1493
I1505
sS'leave'
p1494
I1506
sS'initiatives'
p1495
I1507
sS'funding'
p1496
I1508
sS'missed'
p1497
I1509
sS'blacks'
p1498
I1510
sS'miss'
p1499
I1546
sS'nowisthetime'
p1500
I1512
sS'since'
p1501
I1513
sS'research'
p1502
I1514
sS'health'
p1503
I1304
sS'hill'
p1504
I1516
sS'issue'
p1505
I1517
sS'wisconsin'
p1506
I1518
sS'belief'
p1507
I1519
sS'friday'
p1508
I1520
sS'extraordinary'
p1509
I1521
sS'reason'
p1510
I1522
sS'giveaway'
p1511
I1523
sS'members'
p1512
I1524
sS'imagine'
p1513
I1525
sS'ask'
p1514
I1382
sS'earliest'
p1515
I1527
sS'beginning'
p1516
I1528
sS'bumped'
p1517
I1529
sS'owners'
p1518
I1530
sS'benefits'
p1519
I1531
sS'launch'
p1520
I1532
sS'success'
p1521
I1794
sS'american'
p1522
I1533
sS'threat'
p1523
I1534
sS'bumper'
p1524
I1535
sS'consequence'
p1525
I1536
sS'syria'
p1526
I1537
sS'major'
p1527
I1538
sS'feel'
p1528
I1539
sS'girls'
p1529
I1540
sS'knocking'
p1530
I1541
sS'number'
p1531
I1542
sS'diplomats'
p1532
I2256
sS'traveled'
p1533
I1543
sS'done'
p1534
I1544
sS'wages'
p1535
I1545
sS'bullied'
p1536
I1511
sS'passes'
p1537
I1547
sS'story'
p1538
I1548
sS'heads'
p1539
I1549
sS'guest'
p1540
I1550
sS'coasts'
p1541
I1551
sS'shooting'
p1542
I2461
sS'marchon'
p1543
I1552
sS'least'
p1544
I1553
sS'belongs'
p1545
I1554
sS'storm'
p1546
I320
sS'compromise'
p1547
I1557
sS'recovered'
p1548
I1558
sS'selling'
p1549
I1559
sS'passed'
p1550
I1556
sS'behind'
p1551
I1037
sS'hotel'
p1552
I1164
sS'paycheck'
p1553
I2324
sS'part'
p1554
I1564
sS'jordan'
p1555
I1565
sS'focusing'
p1556
I1566
sS'believe'
p1557
I1567
sS'convinced'
p1558
I1568
sS'inconvenient'
p1559
I1569
sS'stirs'
p1560
I1570
sS'obama'
p1561
I1571
sS'walkthewalk'
p1562
I1572
sS'king'
p1563
I1573
sS'kind'
p1564
I1574
sS'b'
p1565
I1575
sS'womensequalityday'
p1566
I1576
sS'condolences'
p1567
I1577
sS'double'
p1568
I1578
sS'colin'
p1569
I1579
sS'outrageous'
p1570
I1580
sS'marriage'
p1571
I1581
sS'risks'
p1572
I1582
sS'listen'
p1573
I1583
sS'treated'
p1574
I1584
sS'declare'
p1575
I1585
sS'cleaner'
p1576
I1587
sS'contraception'
p1577
I1588
sS'strengthen'
p1578
I1589
sS'worked'
p1579
I434
sS'fights'
p1580
I1591
sS'meltdown'
p1581
I1592
sS'sticker'
p1582
I450
sS'lie'
p1583
I1593
sS'built'
p1584
I1594
sS'trapped'
p1585
I1561
sS'accountable'
p1586
I1595
sS'majority'
p1587
I1596
sS'without'
p1588
I1597
sS'play'
p1589
I1598
sS'towards'
p1590
I534
sS'sweatshirts'
p1591
I1600
sS'reach'
p1592
I1601
sS'affordability'
p1593
I1602
sS'kal'
p1594
I1603
sS'most'
p1595
I1604
sS'plan'
p1596
I1605
sS'services'
p1597
I1606
sS'barackobama'
p1598
I1607
sS'loopholes'
p1599
I1608
sS'seize'
p1600
I1609
sS'clear'
p1601
I1610
sS'cover'
p1602
I1611
sS'clean'
p1603
I1612
sS'attacking'
p1604
I1613
sS'sector'
p1605
I1614
sS'gold'
p1606
I1615
sS'obligations'
p1607
I1616
sS'session'
p1608
I1617
sS'businesses'
p1609
I1618
sS'stores'
p1610
I2334
sS'fine'
p1611
I1620
sS'find'
p1612
I1621
sS'impact'
p1613
I1622
sS'duncan'
p1614
I1623
sS'justice'
p1615
I1624
sS'failed'
p1616
I1625
sS'betray'
p1617
I1626
sS'pretty'
p1618
I1627
sS'billclinton'
p1619
I1628
sS'giants'
p1620
I1629
sS'his'
p1621
I1630
sS'founding'
p1622
I1631
sS'hiv'
p1623
I1632
sS'dependent'
p1624
I1633
sS'sunny'
p1625
I1634
sS'cheaper'
p1626
I1635
sS'famous'
p1627
I1636
sS'feels'
p1628
I1637
sS'courage'
p1629
I1638
sS'fastest'
p1630
I1639
sS'pretending'
p1631
I1640
sS'during'
p1632
I1641
sS'him'
p1633
I1642
sS'jeanne'
p1634
I1643
sS'enemy'
p1635
I1644
sS'resolve'
p1636
I1645
sS'sacrificed'
p1637
I1646
sS'boost'
p1638
I1647
sS'sacrifices'
p1639
I1648
sS'common'
p1640
I1649
sS'hike'
p1641
I1650
sS'kalamazoo'
p1642
I1651
sS'repronpaul'
p1643
I1652
sS'set'
p1644
I1653
sS'patriotism'
p1645
I1654
sS'see'
p1646
I1655
sS'defense'
p1647
I1656
sS'are'
p1648
I1657
sS'sea'
p1649
I1658
sS'close'
p1650
I1660
sS'bark'
p1651
I1661
sS'retweet'
p1652
I1662
sS'matter'
p1653
I1663
sS'movie'
p1654
I1664
sS'please'
p1655
I1665
sS'won'
p1656
I1666
sS'toledo'
p1657
I1668
sS'consecutive'
p1658
I1669
sS'conditions'
p1659
I1670
sS'knowing'
p1660
I1671
sS'creating'
p1661
I1672
sS'sold'
p1662
I1673
sS'nashville'
p1663
I1674
sS'roe'
p1664
I1675
sS'ofaclimate'
p1665
I1676
sS'succeed'
p1666
I1677
sS'stopgunviolence'
p1667
I1678
sS'legislature'
p1668
I1679
sS'both'
p1669
I1680
sS'toward'
p1670
I1681
sS'prescription'
p1671
I112
sS'foreign'
p1672
I1683
sS'became'
p1673
I1684
sS'let'
p1674
I1957
sS'whole'
p1675
I1686
sS'consume'
p1676
I1687
sS'point'
p1677
I1688
sS'reasons'
p1678
I1689
sS'loan'
p1679
I1690
sS'community'
p1680
I1691
sS'shutdown'
p1681
I1692
sS'church'
p1682
I1693
sS'mission'
p1683
I1694
sS'nominee'
p1684
I1695
sS'create'
p1685
I1696
sS'political'
p1686
I1697
sS'due'
p1687
I1698
sS'strategy'
p1688
I1699
sS'hitting'
p1689
I1700
sS'whom'
p1690
I1701
sS'secret'
p1691
I1702
sS'pa'
p1692
I1703
sS'imports'
p1693
I1590
sS'preventable'
p1694
I1704
sS'pi'
p1695
I1705
sS'meeting'
p1696
I1706
sS'pm'
p1697
I1707
sS'slips'
p1698
I1708
sS'generating'
p1699
I1709
sS'flight'
p1700
I1710
sS'brother'
p1701
I2176
sS'gap'
p1702
I834
sS'fund'
p1703
I1712
sS'lives'
p1704
I1714
sS'representative'
p1705
I1715
sS'plants'
p1706
I1716
sS'pierce'
p1707
I1717
sS'uncertain'
p1708
I29
sS'look'
p1709
I1719
sS'congresstodolist'
p1710
I1720
sS'pacs'
p1711
I1721
sS'straight'
p1712
I40
sS'bill'
p1713
I1723
sS'elections'
p1714
I47
sS'governor'
p1715
I1725
sS'pace'
p1716
I54
sS'while'
p1717
I1727
sS'involved'
p1718
I1964
sS'fun'
p1719
I1729
sS'guide'
p1720
I1730
sS'birthright'
p1721
I1731
sS'hoping'
p1722
I1732
sS'voters'
p1723
I104
sS'calculator'
p1724
I1734
sS'belmont'
p1725
I1735
sS'hoax'
p1726
I1736
sS'ready'
p1727
I1737
sS'rid'
p1728
I1739
sS'fairer'
p1729
I1740
sS'funny'
p1730
I1741
sS'shirt'
p1731
I1742
sS'belong'
p1732
I1743
sS'rules'
p1733
I1744
sS'daughters'
p1734
I1745
sS'higher'
p1735
I1746
sS'used'
p1736
I1747
sS'comprehensive'
p1737
I1748
sS'yesterday'
p1738
I1749
sS'holidays'
p1739
I1750
sS'moment'
p1740
I1751
sS'levels'
p1741
I1752
sS'medicaid'
p1742
I628
sS'necessity'
p1743
I1754
sS'lower'
p1744
I1756
sS'task'
p1745
I1757
sS'poland'
p1746
I1758
sS'person'
p1747
I1759
sS'cheer'
p1748
I1760
sS'withdraw'
p1749
I1761
sS'san'
p1750
I952
sS'prevention'
p1751
I1763
sS'know'
p1752
I2359
sS'listening'
p1753
I1764
sS'repealing'
p1754
I1765
sS'kippur'
p1755
I358
sS'uswnt'
p1756
I1767
sS'questions'
p1757
I1768
sS'using'
p1758
I1769
sS'continent'
p1759
I1770
sS'wage'
p1760
I1771
sS'cut'
p1761
I1772
sS'also'
p1762
I1773
sS'lady'
p1763
I1774
sS'workers'
p1764
I1775
sS'barack'
p1765
I1776
sS'eager'
p1766
I1777
sS'parents'
p1767
I1778
sS'homeland'
p1768
I1779
sS'win'
p1769
I1972
sS'kaczynski'
p1770
I2372
sS'ballots'
p1771
I1781
sS'guarantees'
p1772
I1782
sS'easter'
p1773
I1783
sS'excited'
p1774
I1784
sS'victims'
p1775
I60
sS'forces'
p1776
I1786
sS'emergency'
p1777
I1787
sS'demands'
p1778
I1788
sS'big'
p1779
I1789
sS'couple'
p1780
I1790
sS'suffering'
p1781
I482
sS'buyout'
p1782
I1792
sS'knock'
p1783
I1793
sS'd'
p1784
I523
sS'individuals'
p1785
I1471
sS'surging'
p1786
I1796
sS'popular'
p1787
I1797
sS'saddled'
p1788
I1798
sS'dinnerwithbarackandjoe'
p1789
I1799
sS'senate'
p1790
I1800
sS'wearorange'
p1791
I1801
sS'creation'
p1792
I1802
sS'some'
p1793
I1803
sS'back'
p1794
I1804
sS'urgent'
p1795
I620
sS'strongest'
p1796
I1806
sS'added'
p1797
I1599
sS'sight'
p1798
I1808
sS'ourselves'
p1799
I1809
sS'distorting'
p1800
I1810
sS'delivered'
p1801
I1811
sS'decision'
p1802
I1812
sS'per'
p1803
I1813
sS'retro'
p1804
I684
sS'innovation'
p1805
I1815
sS'either'
p1806
I1816
sS'cgi'
p1807
I1817
sS'be'
p1808
I1818
sS'patient'
p1809
I717
sS'word'
p1810
I1820
sS'davidvitter'
p1811
I728
sS'agreement'
p1812
I731
sS'merrick'
p1813
I747
sS'bp'
p1814
I1824
sS'output'
p1815
I1825
sS'refuses'
p1816
I1826
sS'abroad'
p1817
I765
sS'faith'
p1818
I1828
sS'pipeline'
p1819
I1829
sS'usa'
p1820
I1830
sS'volunteering'
p1821
I778
sS'passover'
p1822
I1832
sS'graduation'
p1823
I1833
sS'deserves'
p1824
I1834
sS'imarch'
p1825
I1835
sS'congressman'
p1826
I1836
sS'pollution'
p1827
I1837
sS'resiliency'
p1828
I1838
sS'clinton'
p1829
I1839
sS'plenty'
p1830
I1840
sS'into'
p1831
I1841
sS'within'
p1832
I1842
sS'nonsense'
p1833
I1843
sS'democrat'
p1834
I1498
sS'nothing'
p1835
I1844
sS'remembrance'
p1836
I1845
sS'pentagon'
p1837
I1846
sS'resilience'
p1838
I1847
sS'few'
p1839
I1985
sS'spending'
p1840
I1848
sS'question'
p1841
I1849
sS'fast'
p1842
I918
sS'custom'
p1843
I1851
sS'crackdown'
p1844
I1852
sS'forward'
p1845
I1853
sS'manufacture'
p1846
I1854
sS'an'
p1847
I2282
sS'registered'
p1848
I1855
sS'immigration'
p1849
I1856
sS'deductions'
p1850
I1857
sS'link'
p1851
I1858
sS'episode'
p1852
I1860
sS'line'
p1853
I1861
sS'raising'
p1854
I1862
sS'info'
p1855
I1863
sS'sounds'
p1856
I1864
sS'cio'
p1857
I1865
sS'up'
p1858
I1866
sS'us'
p1859
I1867
sS'erica'
p1860
I1868
sS'planet'
p1861
I1869
sS'delray'
p1862
I2375
sS'z'
p1863
I1871
sS'called'
p1864
I1055
sS'adults'
p1865
I1859
sS'introducing'
p1866
I1874
sS'defined'
p1867
I1875
sS'willed'
p1868
I1876
sS'doesn'
p1869
I1877
sS'single'
p1870
I1878
sS'unleashing'
p1871
I1467
sS'chat'
p1872
I1879
sS'rally'
p1873
I1880
sS'defines'
p1874
I1881
sS'ballot'
p1875
I2378
sS'peace'
p1876
I1883
sS'application'
p1877
I1884
sS'politicians'
p1878
I1885
sS'income'
p1879
I1887
sS'department'
p1880
I1888
sS'bandstand'
p1881
I1889
sS'gameday'
p1882
I1891
sS'problems'
p1883
I1892
sS'visits'
p1884
I1893
sS'prepared'
p1885
I1894
sS'helping'
p1886
I1895
sS'peopleoverpolitics'
p1887
I1896
sS'springsteen'
p1888
I1897
sS'ago'
p1889
I1898
sS'land'
p1890
I1899
sS'vice'
p1891
I1900
sS'age'
p1892
I1901
sS'youtube'
p1893
I1902
sS'rallies'
p1894
I1903
sS'far'
p1895
I1904
sS'having'
p1896
I1905
sS'once'
p1897
I1906
sS'code'
p1898
I1907
sS'broaden'
p1899
I1908
sS'existing'
p1900
I1909
sS'infographic'
p1901
I1910
sS'stops'
p1902
I1911
sS'broader'
p1903
I1912
sS'betterwithobamacare'
p1904
I1333
sS'gm'
p1905
I1914
sS'centers'
p1906
I1915
sS'issues'
p1907
I1916
sS'disposal'
p1908
I1918
sS'young'
p1909
I1919
sS'send'
p1910
I1920
sS'suits'
p1911
I1921
sS'helps'
p1912
I1922
sS'lilly'
p1913
I1924
sS'sent'
p1914
I1410
sS'enoughalready'
p1915
I1926
sS'outside'
p1916
I1927
sS'continues'
p1917
I1928
sS'wishes'
p1918
I1929
sS'putting'
p1919
I1452
sS'telling'
p1920
I1931
sS'gurion'
p1921
I1932
sS'entire'
p1922
I1933
sS'gender'
p1923
I1934
sS'button'
p1924
I1935
sS'michael'
p1925
I1936
sS'fewer'
p1926
I1500
sS'try'
p1927
I1938
sS'race'
p1928
I1939
sS'obesity'
p1929
I1940
sS'cap'
p1930
I1941
sS'netneutrality'
p1931
I1942
sS'video'
p1932
I1943
sS'booth'
p1933
I1944
sS'equal'
p1934
I2251
sS'honors'
p1935
I1945
sS'nevada'
p1936
I1946
sS'power'
p1937
I1947
sS'chicago'
p1938
I1948
sS'giving'
p1939
I1949
sS'access'
p1940
I1950
sS'waiting'
p1941
I1951
sS'led'
p1942
I1952
sS'degree'
p1943
I1953
sS'upsetting'
p1944
I1954
sS'delivering'
p1945
I1955
sS'bachelor'
p1946
I1956
sS'poverty'
p1947
I1685
sS'others'
p1948
I1958
sS'consideration'
p1949
I1959
sS'safer'
p1950
I1960
sS'fifteen'
p1951
I1961
sS'getcoverednow'
p1952
I1962
sS'great'
p1953
I1963
sS'chant'
p1954
I1728
sS'alaska'
p1955
I1965
sS'products'
p1956
I1966
sS'makes'
p1957
I1967
sS'honor'
p1958
I1968
sS'apple'
p1959
I1969
sS'claim'
p1960
I1970
sS'egypt'
p1961
I1971
sS'presidents'
p1962
I1780
sS'private'
p1963
I1973
sS'streamed'
p1964
I2013
sS'oval'
p1965
I1975
sS'apply'
p1966
I1976
sS'tools'
p1967
I1977
sS'menino'
p1968
I1978
sS'announced'
p1969
I2100
sS'standing'
p1970
I1979
sS'confidence'
p1971
I41
sS'from'
p1972
I1981
sS'stream'
p1973
I1982
sS'certificate'
p1974
I1667
sS'next'
p1975
I1984
sS'laying'
p1976
I1083
sS'doubt'
p1977
I1986
sS'estimated'
p1978
I1987
sS'congratulates'
p1979
I1988
sS'themselves'
p1980
I1989
sS'subsidies'
p1981
I1586
sS'touched'
p1982
I1991
sS'actonclimate'
p1983
I1992
sS'gained'
p1984
I2400
sS'journalists'
p1985
I1994
sS'started'
p1986
I1995
sS'about'
p1987
I2401
sS'trail'
p1988
I1998
sS'promisekept'
p1989
I1999
sS'appointed'
p1990
I2000
sS'women'
p1991
I2001
sS'account'
p1992
I2002
sS'announcing'
p1993
I2004
sS'sanctions'
p1994
I2005
sS'this'
p1995
I2006
sS'challenge'
p1996
I2007
sS'of'
p1997
I2008
sS'meet'
p1998
I2009
sS'closing'
p1999
I2010
sS'potus'
p2000
I2011
sS'control'
p2001
I2012
sS'arlen'
p2002
I1974
sS'reserved'
p2003
I2014
sS'plate'
p2004
I2015
sS'process'
p2005
I2016
sS'tax'
p2006
I2017
sS'purposes'
p2007
I2018
sS'high'
p2008
I2019
sS'pulling'
p2009
I2020
sS'something'
p2010
I2021
sS'sought'
p2011
I2022
sS'hit'
p2012
I2023
sS'rape'
p2013
I2024
sS'afl'
p2014
I2025
sS'united'
p2015
I2026
sS'embodiment'
p2016
I2027
sS'democracy'
p2017
I2028
sS'sit'
p2018
I2029
sS'destroying'
p2019
I2030
sS'six'
p2020
I2031
sS'findyourpark'
p2021
I2032
sS'winners'
p2022
I2033
sS'forest'
p2023
I2034
sS'instead'
p2024
I2035
sS'y'
p2025
I1762
sS'farm'
p2026
I2036
sS'stop'
p2027
I2037
sS'philosophy'
p2028
I2038
sS'ties'
p2029
I2039
sS'winter'
p2030
I2040
sS'light'
p2031
I2041
sS'chief'
p2032
I2042
sS'agenda'
p2033
I2043
sS'looking'
p2034
I10
sS'longest'
p2035
I2045
sS'deniers'
p2036
I2046
sS'timetoact'
p2037
I2047
sS'move'
p2038
I2048
sS'michaelcburgess'
p2039
I2049
sS'including'
p2040
I2050
sS'looks'
p2041
I2051
sS'cruise'
p2042
I2052
sS'warren'
p2043
I2053
sS'perfect'
p2044
I2054
sS'chosen'
p2045
I2055
sS'll'
p2046
I2056
sS'winning'
p2047
I2057
sS'owe'
p2048
I2414
sS'permanent'
p2049
I2059
sS'choose'
p2050
I2060
sS'covered'
p2051
I2061
sS'holiday'
p2052
I2062
sS'dad'
p2053
I2063
sS'crash'
p2054
I2064
sS'greater'
p2055
I2065
sS'auto'
p2056
I2066
sS'disrupted'
p2057
I2067
sS'cutting'
p2058
I2068
sS'legendary'
p2059
I2069
sS'souza'
p2060
I2070
sS'republican'
p2061
I2071
sS'handy'
p2062
I1352
sS'presidential'
p2063
I2073
sS'applicants'
p2064
I2074
sS'university'
p2065
I2075
sS'slide'
p2066
I2076
sS'truth'
p2067
I2077
sS'rising'
p2068
I2078
sS'shaking'
p2069
I2079
sS'francisco'
p2070
I2469
sS'seniors'
p2071
I2080
sS'doing'
p2072
I2081
sS'parties'
p2073
I2082
sS'unbelievable'
p2074
I2083
sS'static'
p2075
I2084
sS'changed'
p2076
I448
sS'our'
p2077
I2086
sS'nbafinals'
p2078
I2087
sS'sexual'
p2079
I2088
sS'special'
p2080
I2089
sS'out'
p2081
I2090
sS'fundamentally'
p2082
I2092
sS'announces'
p2083
I2094
sS'rep'
p2084
I2095
sS'laramie'
p2085
I2096
sS'honorable'
p2086
I2097
sS'electronics'
p2087
I2098
sS'supports'
p2088
I2099
sS'red'
p2089
I39
sS'shut'
p2090
I2101
sS'payroll'
p2091
I2102
sS'delegates'
p2092
I2103
sS'completely'
p2093
I2104
sS'jill'
p2094
I2105
sS'york'
p2095
I2106
sS'quo'
p2096
I2107
sS'backwards'
p2097
I2108
sS'yard'
p2098
I2109
sS'g'
p2099
I2110
sS'spill'
p2100
I2111
sS'could'
p2101
I2112
sS'florida'
p2102
I2113
sS'keep'
p2103
I134
sS'conversation'
p2104
I2115
sS'produce'
p2105
I2116
sS'austin'
p2106
I2117
sS'scare'
p2107
I2118
sS'succeeds'
p2108
I2119
sS'flyers'
p2109
I397
sS'powerful'
p2110
I2121
sS'bama'
p2111
I2122
sS'buffettrule'
p2112
I2123
sS'reached'
p2113
I2124
sS'quality'
p2114
I2125
sS'madeinamerica'
p2115
I251
sS'ordering'
p2116
I2127
sS'durable'
p2117
I2128
sS'idahot'
p2118
I2129
sS'system'
p2119
I2130
sS'priority'
p2120
I2131
sS'their'
p2121
I2132
sS'prouder'
p2122
I2133
sS'final'
p2123
I2134
sS'interests'
p2124
I2135
sS'wendell'
p2125
I2136
sS'july'
p2126
I2137
sS'overwhelming'
p2127
I2138
sS'loved'
p2128
I2139
sS'colleagues'
p2129
I2140
sS'ben'
p2130
I2141
sS'breadwinners'
p2131
I2142
sS'patients'
p2132
I2143
sS'arc'
p2133
I2144
sS'gays'
p2134
I2145
sS'providing'
p2135
I2146
sS'spurs'
p2136
I2147
sS'tonight'
p2137
I2148
sS'tom'
p2138
I1562
sS'have'
p2139
I2149
sS'sen'
p2140
I2150
sS'need'
p2141
I2151
sS'flotus'
p2142
I2152
sS'whatwillittake'
p2143
I2153
sS'able'
p2144
I2154
sS'parks'
p2145
I2155
sS'which'
p2146
I2156
sS'trivia'
p2147
I2157
sS'therealromney'
p2148
I2158
sS'toughest'
p2149
I2159
sS'unless'
p2150
I543
sS'sinegal'
p2151
I545
sS'kingjames'
p2152
I2162
sS'who'
p2153
I2163
sS'sc'
p2154
I2164
sS'eight'
p2155
I2165
sS'medal'
p2156
I2166
sS'why'
p2157
I2167
sS'discourage'
p2158
I611
sS'volunteers'
p2159
I2044
sS'placement'
p2160
I2169
sS'stronger'
p2161
I2170
sS'face'
p2162
I2171
sS'fact'
p2163
I2172
sS'violation'
p2164
I2173
sS'text'
p2165
I2174
sS'supported'
p2166
I2175
sS'homeowner'
p2167
I692
sS'bring'
p2168
I2177
sS'planning'
p2169
I2178
sS'democrats'
p2170
I2179
sS'debate'
p2171
I2180
sS'decade'
p2172
I2181
sS'stamped'
p2173
I2182
sS'trying'
p2174
I1175
sS'based'
p2175
I2184
sS'earned'
p2176
I745
sS'actonreform'
p2177
I2186
sS'colbert'
p2178
I2187
sS'controls'
p2179
I2188
sS'should'
p2180
I2189
sS'jan'
p2181
I2190
sS'score'
p2182
I376
sS'candidates'
p2183
I2191
sS'thousands'
p2184
I1203
sS'hope'
p2185
I2193
sS'watching'
p2186
I2194
sS'crumbling'
p2187
I2195
sS'wishing'
p2188
I2196
sS'michigan'
p2189
I2197
sS'background'
p2190
I519
sS'october'
p2191
I2198
sS'words'
p2192
I2199
sS'webcast'
p2193
I2200
sS'entity'
p2194
I2201
sS'thrives'
p2195
I2202
sS'campus'
p2196
I2462
sS'littlest'
p2197
I2203
sS'ended'
p2198
I1228
sS'h'
p2199
I2205
sS'married'
p2200
I2206
sS'taxes'
p2201
I2207
sS'calling'
p2202
I2208
sS'reid'
p2203
I2209
sS'extremists'
p2204
I2210
sS'she'
p2205
I2211
sS'wish'
p2206
I2442
sS'ohio'
p2207
I2213
sS'rein'
p2208
I901
sS'generations'
p2209
I2215
sS'view'
p2210
I2216
sS'buzzer'
p2211
I2217
sS'available'
p2212
I2218
sS'requirement'
p2213
I2219
sS'prayers'
p2214
I1114
sS'national'
p2215
I2221
sS'pitch'
p2216
I2222
sS'immigrant'
p2217
I2223
sS'officials'
p2218
I1923
sS'forgo'
p2219
I2225
sS'closer'
p2220
I2226
sS'destiny'
p2221
I980
sS'reform'
p2222
I2228
sS'middletown'
p2223
I514
sS'partisan'
p2224
I2230
sS'favor'
p2225
I2231
sS'state'
p2226
I2232
sS'nuclear'
p2227
I2229
sS'sabotage'
p2228
I2234
sS'email'
p2229
I2235
sS'ends'
p2230
I2236
sS'ability'
p2231
I2237
sS'importance'
p2232
I2238
sS'deliver'
p2233
I2239
sS'job'
p2234
I2240
sS'joe'
p2235
I2241
sS'key'
p2236
I1063
sS'abbywambach'
p2237
I2243
sS'problem'
p2238
I2450
sS'declining'
p2239
I2245
sS'<end>'
p2240
I2246
sS'limits'
p2241
I2247
sS'career'
p2242
I2248
sS'joke'
p2243
I2249
sS'taking'
p2244
I2250
sS'deficits'
p2245
I61
sS'ranked'
p2246
I2252
sS'strengthens'
p2247
I2453
sS'passing'
p2248
I2253
sS'glorious'
p2249
I2254
sS'wear'
p2250
I2255
sS'co'
p2251
I1140
sS'wall'
p2252
I2257
sS'ca'
p2253
I2258
sS'<beg>'
p2254
I2259
sS'walk'
p2255
I2260
sS'commend'
p2256
I2261
sS'carbon'
p2257
I2262
sS'table'
p2258
I2263
sS'labor'
p2259
I2264
sS'citizenship'
p2260
I848
sS'loveislove'
p2261
I2266
sS'decent'
p2262
I1185
sS'rhode'
p2263
I2268
sS'willing'
p2264
I2269
sS'treat'
p2265
I2270
sS'climatechangeisreal'
p2266
I1232
sS'kitchen'
p2267
I2272
sS'louisiana'
p2268
I2273
sS'killed'
p2269
I2347
sS'climate'
p2270
I2275
sS'sales'
p2271
I2276
sS'finished'
p2272
I2277
sS'ensuring'
p2273
I2278
sS'mail'
p2274
I2279
sS'kicks'
p2275
I2280
sS'improved'
p2276
I1682
sS'general'
p2277
I2274
sS'mourning'
p2278
I2283
sS'homes'
p2279
I2284
sS'criminal'
p2280
I2285
sS'plain'
p2281
I2286
sS'means'
p2282
I2287
sS'nd'
p2283
I2288
sS'appearance'
p2284
I2091
sS'choices'
p2285
I2290
sS'will'
p2286
I2291
sS'petition'
p2287
I2292
sS've'
p2288
I2293
sS'almost'
p2289
I2294
sS'helped'
p2290
I1404
sS'optimistic'
p2291
I355
sS'lifetime'
p2292
I2298
sS'hearted'
p2293
I2299
sS'partner'
p2294
I2300
sS'sits'
p2295
I2301
sS'denial'
p2296
I844
sS'views'
p2297
I2303
sS'administration'
p2298
I2304
sS'cross'
p2299
I2305
sS'unite'
p2300
I2306
sS'jobsnotcuts'
p2301
I2307
sS'member'
p2302
I2308
sS'unity'
p2303
I2309
sS'largest'
p2304
I2310
sS'party'
p2305
I2311
sS'terrorism'
p2306
I2312
sS'gets'
p2307
I2313
sS'powell'
p2308
I2314
sS'difficult'
p2309
I2315
sS'ball'
p2310
I2316
sS'columbia'
p2311
I2317
sS'premiere'
p2312
I2318
sS'disagree'
p2313
I2319
sS'effect'
p2314
I2320
sS'student'
p2315
I2321
sS'fierce'
p2316
I2322
sS'warming'
p2317
I2323
sS'chattanooga'
p2318
I1563
sS'ofa'
p2319
I2325
sS'off'
p2320
I2326
sS'i'
p2321
I2327
sS'weapon'
p2322
I2328
sS'well'
p2323
I2329
sS'fighting'
p2324
I2330
sS'thought'
p2325
I2331
sS'sets'
p2326
I2332
sS'restore'
p2327
I2333
sS'newest'
p2328
I1619
sS'less'
p2329
I2335
sS'moments'
p2330
I2336
sS'executive'
p2331
I343
sS'arriving'
p2332
I2093
sS'batteries'
p2333
I2339
sS'casper'
p2334
I2340
sS'protecting'
p2335
I2341
sS'paul'
p2336
I2342
sS'happiness'
p2337
I2343
sS'ads'
p2338
I2344
sS'field'
p2339
I2345
sS'lake'
p2340
I2346
sS'day'
p2341
I2072
sS'simple'
p2342
I2348
sS'add'
p2343
I2349
sS'preschool'
p2344
I2350
sS'citizen'
p2345
I2351
sS'unprecedented'
p2346
I2352
sS'ought'
p2347
I2353
sS'increased'
p2348
I2354
sS'government'
p2349
I2355
sS'checking'
p2350
I2356
sS'historic'
p2351
I2357
sS'five'
p2352
I2358
sS'whatever'
p2353
I1713
sS'press'
p2354
I2360
sS'immediately'
p2355
I2361
sS'necessary'
p2356
I2362
sS'like'
p2357
I2363
sS'inviting'
p2358
I1202
sS'miami'
p2359
I2365
sS'taping'
p2360
I2366
sS'lose'
p2361
I2368
sS'hosts'
p2362
I2367
sS'james'
p2363
I873
sS'become'
p2364
I2369
sS'works'
p2365
I2370
sS'page'
p2366
I2371
sS'surest'
p2367
I169
sS'because'
p2368
I2373
sS'twitter'
p2369
I2374
sS'visions'
p2370
I2402
sS'growth'
p2371
I1870
sS'choosing'
p2372
I2376
sS'home'
p2373
I2377
sS'employment'
p2374
I1882
sS'march'
p2375
I1785
sS'happens'
p2376
I2379
sS'est'
p2377
I2380
sS'lead'
p2378
I2381
sS'severance'
p2379
I2382
sS'mourdock'
p2380
I2383
sS'literally'
p2381
I2384
sS'stephenathome'
p2382
I1917
sS'rewarding'
p2383
I2386
sS'does'
p2384
I2387
sS'keystone'
p2385
I2388
sS'leader'
p2386
I2389
sS'speakerboehner'
p2387
I2390
sS'deciding'
p2388
I2391
sS'repblumenauer'
p2389
I2392
sS'apostolic'
p2390
I2393
sS'mitt'
p2391
I2394
sS'expansion'
p2392
I2395
sS'host'
p2393
I2396
sS'worthy'
p2394
I2397
sS'loans'
p2395
I2398
sS'raise'
p2396
I2399
sS'gwenstefani'
p2397
I1993
sS'sister'
p2398
I1997
sS'dontwait'
p2399
I2003
sS'getting'
p2400
I2403
sS'iamkidpresident'
p2401
I2404
sS'freedom'
p2402
I2405
sS'dependence'
p2403
I2406
sS'recognized'
p2404
I1755
sS'statement'
p2405
I1560
sS'clooney'
p2406
I2409
sS'introduced'
p2407
I2410
sS'equally'
p2408
I2411
sS'own'
p2409
I2412
sS'letters'
p2410
I2413
sS'previously'
p2411
I2058
sS'washington'
p2412
I2415
sS'commitment'
p2413
I2416
sS'billions'
p2414
I2417
sS'promise'
p2415
I2418
sS'registration'
p2416
I2419
sS'roads'
p2417
I2420
sS'repeal'
p2418
I2481
sS'getcovered'
p2419
I2421
sS'firefighter'
p2420
I2422
sS'overtime'
p2421
I2423
sS'describes'
p2422
I2424
sS'biggest'
p2423
I2425
sS'kwanzaa'
p2424
I2426
sS'fiscal'
p2425
I2427
sS'appointing'
p2426
I2428
sS'north'
p2427
I2429
sS'brand'
p2428
I2430
sS'stories'
p2429
I2448
sS'but'
p2430
I2431
sS'delivery'
p2431
I2432
sS'reminds'
p2432
I2433
sS'construction'
p2433
I2434
sS'ear'
p2434
I549
sS'he'
p2435
I2436
sS'count'
p2436
I2437
sS'challenges'
p2437
I2438
sS'made'
p2438
I2439
sS'tactics'
p2439
I2440
sS'whether'
p2440
I2441
sS'dangerous'
p2441
I2212
sS'official'
p2442
I2443
sS'grieve'
p2443
I2444
sS'signed'
p2444
I2445
sS'record'
p2445
I2446
sS'dinnerwithbarack'
p2446
I2447
sS'limit'
p2447
I1738
sS'arne'
p2448
I1996
sS'blessings'
p2449
I2408
sS'nominations'
p2450
I2244
sS'piece'
p2451
I2451
sS'minutes'
p2452
I2452
sS'chip'
p2453
I1990
sS'firm'
p2454
I2454
sS'marketplace'
p2455
I1226
sS'deaths'
p2456
I2456
sS'universal'
p2457
I2457
sS'measure'
p2458
I2085
sS'romney'
p2459
I2458
sS'pie'
p2460
I2459
sS'goodness'
p2461
I2460
sS'education'
p2462
I2302
sS'girl'
p2463
I884
sS'percent'
p2464
I2463
sS'illinois'
p2465
I2464
sS'other'
p2466
I2465
sS'sick'
p2467
I2466
sS'welcomes'
p2468
I2467
sS'er'
p2469
I2468
sS'expel'
p2470
I2220
sS'repeat'
p2471
I828
sS'star'
p2472
I2470
sS'respected'
p2473
I2471
sS'demandaction'
p2474
I2472
sS'oppression'
p2475
I2385
sS'dismantle'
p2476
I2474
sS'stay'
p2477
I2475
sS'margaret'
p2478
I2476
sS'chance'
p2479
I2477
sS'mlkdream'
p2480
I2478
sS'backstage'
p2481
I2479
sS'ceos'
p2482
I2480
sS'else'
p2483
I1711
sS'friends'
p2484
I2482
sS'contraceptive'
p2485
I2483
sS'rule'
p2486
I2484
sS'hikes'
p2487
I2486
sS'understand'
p2488
I2487
sS'commencement'
p2489
I2485
s.